
Software.elf:     file format elf32-avr

Sections:
Idx Name          Size      VMA       LMA       File off  Algn
  0 .text         00001572  00000000  00000000  000000b4  2**1
                  CONTENTS, ALLOC, LOAD, READONLY, CODE
  1 .data         0000009e  00800060  00001572  00001626  2**0
                  CONTENTS, ALLOC, LOAD, DATA
  2 .bss          00000074  008000fe  008000fe  000016c4  2**0
                  ALLOC
  3 .eeprom       00000012  00810000  00810000  000016c4  2**0
                  CONTENTS, ALLOC, LOAD, DATA
  4 .comment      00000030  00000000  00000000  000016d6  2**0
                  CONTENTS, READONLY
  5 .note.gnu.avr.deviceinfo 0000003c  00000000  00000000  00001708  2**2
                  CONTENTS, READONLY
  6 .debug_aranges 000001b0  00000000  00000000  00001748  2**3
                  CONTENTS, READONLY, DEBUGGING
  7 .debug_info   00002248  00000000  00000000  000018f8  2**0
                  CONTENTS, READONLY, DEBUGGING
  8 .debug_abbrev 00000bdc  00000000  00000000  00003b40  2**0
                  CONTENTS, READONLY, DEBUGGING
  9 .debug_line   00001333  00000000  00000000  0000471c  2**0
                  CONTENTS, READONLY, DEBUGGING
 10 .debug_frame  00000478  00000000  00000000  00005a50  2**2
                  CONTENTS, READONLY, DEBUGGING
 11 .debug_str    000006be  00000000  00000000  00005ec8  2**0
                  CONTENTS, READONLY, DEBUGGING
 12 .debug_loc    00001250  00000000  00000000  00006586  2**0
                  CONTENTS, READONLY, DEBUGGING
 13 .debug_ranges 00000190  00000000  00000000  000077d6  2**0
                  CONTENTS, READONLY, DEBUGGING

Disassembly of section .text:

00000000 <__vectors>:
       0:	05 c2       	rjmp	.+1034   	; 0x40c <__ctors_end>
       2:	1f c2       	rjmp	.+1086   	; 0x442 <__bad_interrupt>
       4:	1e c2       	rjmp	.+1084   	; 0x442 <__bad_interrupt>
       6:	1d c2       	rjmp	.+1082   	; 0x442 <__bad_interrupt>
       8:	1c c2       	rjmp	.+1080   	; 0x442 <__bad_interrupt>
       a:	1b c2       	rjmp	.+1078   	; 0x442 <__bad_interrupt>
       c:	1a c2       	rjmp	.+1076   	; 0x442 <__bad_interrupt>
       e:	19 c2       	rjmp	.+1074   	; 0x442 <__bad_interrupt>
      10:	18 c2       	rjmp	.+1072   	; 0x442 <__bad_interrupt>
      12:	12 c5       	rjmp	.+2596   	; 0xa38 <__vector_9>
      14:	16 c2       	rjmp	.+1068   	; 0x442 <__bad_interrupt>
      16:	15 c2       	rjmp	.+1066   	; 0x442 <__bad_interrupt>
      18:	14 c2       	rjmp	.+1064   	; 0x442 <__bad_interrupt>
      1a:	13 c2       	rjmp	.+1062   	; 0x442 <__bad_interrupt>
      1c:	12 c2       	rjmp	.+1060   	; 0x442 <__bad_interrupt>
      1e:	11 c2       	rjmp	.+1058   	; 0x442 <__bad_interrupt>
      20:	10 c2       	rjmp	.+1056   	; 0x442 <__bad_interrupt>
      22:	0f c2       	rjmp	.+1054   	; 0x442 <__bad_interrupt>
      24:	0e c2       	rjmp	.+1052   	; 0x442 <__bad_interrupt>

00000026 <LargeNum>:
	...
      36:	00 00 00 30 30 00 00 00 00 00 00 03 03 00 00 00     ...00...........
      46:	00 fc 03 c3 c3 33 fc 00 00 0f 33 30 30 30 0f 00     .....3....3000..
      56:	00 00 00 0c ff 00 00 00 00 00 00 30 3f 30 00 00     ...........0?0..
      66:	00 0c 03 c3 c3 c3 3c 00 00 3c 33 30 30 30 30 00     ......<..<30000.
      76:	00 03 03 c3 c3 f3 0f 00 00 0c 30 30 30 30 0f 00     ..........0000..
      86:	00 00 c0 30 0c ff 00 00 00 03 03 03 03 3f 03 00     ...0.........?..
      96:	00 3f 33 33 33 33 c3 00 00 0c 30 30 30 30 0f 00     .?3333....0000..
      a6:	00 f0 cc c3 c3 c3 03 00 00 0f 30 30 30 30 0f 00     ..........0000..
      b6:	00 03 03 03 c3 33 0f 00 00 00 00 3f 00 00 00 00     .....3.....?....
      c6:	00 3c c3 c3 c3 c3 3c 00 00 0f 30 30 30 30 0f 00     .<....<...0000..
      d6:	00 3c c3 c3 c3 c3 fc 00 00 30 30 30 30 0c 03 00     .<.......0000...

000000e6 <SmallFont>:
      e6:	00 00 00 00 00 00 00 5f 00 00 00 07 00 07 00 14     ......._........
      f6:	7f 14 7f 14 24 2a 7f 2a 12 62 64 08 13 23 36 49     ....$*.*.bd..#6I
     106:	55 22 50 00 05 03 00 00 00 1c 22 41 00 00 41 22     U"P......."A..A"
     116:	1c 00 14 08 3e 08 14 08 08 3e 08 08 00 00 a0 60     ....>....>.....`
     126:	00 08 08 08 08 08 00 60 60 00 00 20 10 08 04 02     .......``.. ....
     136:	3e 51 49 45 3e 00 42 7f 40 00 42 61 51 49 46 21     >QIE>.B.@.BaQIF!
     146:	41 45 4b 31 18 14 12 7f 10 27 45 45 45 39 3c 4a     AEK1.....'EEE9<J
     156:	49 49 30 01 71 09 05 03 36 49 49 49 36 06 49 49     II0.q...6III6.II
     166:	29 1e 00 36 36 00 00 00 56 36 00 00 08 14 22 41     )..66...V6...."A
     176:	00 14 14 14 14 14 00 41 22 14 08 02 01 51 09 06     .......A"....Q..
     186:	32 49 59 51 3e 7c 12 11 12 7c 7f 49 49 49 36 3e     2IYQ>|...|.III6>
     196:	41 41 41 22 7f 41 41 22 1c 7f 49 49 49 41 7f 09     AAA".AA"..IIIA..
     1a6:	09 09 01 3e 41 49 49 7a 7f 08 08 08 7f 00 41 7f     ...>AIIz......A.
     1b6:	41 00 20 40 41 3f 01 7f 08 14 22 41 7f 40 40 40     A. @A?...."A.@@@
     1c6:	40 7f 02 0c 02 7f 7f 04 08 10 7f 3e 41 41 41 3e     @..........>AAA>
     1d6:	7f 09 09 09 06 3e 41 51 21 5e 7f 09 19 29 46 46     .....>AQ!^...)FF
     1e6:	49 49 49 31 01 01 7f 01 01 3f 40 40 40 3f 1f 20     III1.....?@@@?. 
     1f6:	40 20 1f 3f 40 38 40 3f 63 14 08 14 63 07 08 70     @ .?@8@?c...c..p
     206:	08 07 61 51 49 45 43 00 7f 41 41 00 02 04 08 10     ..aQIEC..AA.....
     216:	20 00 41 41 7f 00 04 02 01 02 04 40 40 40 40 40      .AA.......@@@@@
     226:	00 01 02 04 00 20 54 54 54 78 7f 48 44 44 38 38     ..... TTTx.HDD88
     236:	44 44 44 20 38 44 44 48 7f 38 54 54 54 18 08 7e     DDD 8DDH.8TTT..~
     246:	09 01 02 18 a4 a4 a4 7c 7f 08 04 04 78 00 44 7d     .......|....x.D}
     256:	40 00 40 80 84 7d 00 7f 10 28 44 00 00 41 7f 40     @.@..}...(D..A.@
     266:	00 7c 04 18 04 78 7c 08 04 04 78 38 44 44 44 38     .|...x|...x8DDD8
     276:	fc 24 24 24 18 18 24 24 18 fc 7c 08 04 04 08 48     .$$$..$$..|....H
     286:	54 54 54 20 04 3f 44 40 20 3c 40 40 20 7c 1c 20     TTT .?D@ <@@ |. 
     296:	40 20 1c 3c 40 30 40 3c 44 28 10 28 44 1c a0 a0     @ .<@0@<D(.(D...
     2a6:	a0 7c 44 64 54 4c 44 00 08 36 41 00 00 00 7f 00     .|DdTLD..6A.....
     2b6:	00 00 41 36 08 00 08 04 08 10 08 7e 11 11 11 7e     ..A6.......~...~
     2c6:	7f 49 49 49 31 7f 49 49 49 36 7f 01 01 01 01 c0     .III1.III6......
     2d6:	7f 41 7f c0 7f 49 49 49 41 73 0c 7f 0c 73 41 49     .A...IIIAs...sAI
     2e6:	49 36 00 7f 10 0c 02 7f 7f 20 19 04 7f 7f 08 14     I6....... ......
     2f6:	22 41 40 3e 01 01 7f 7f 02 0c 02 7f 7f 08 08 08     "A@>............
     306:	7f 3e 41 41 41 3e 7f 01 01 01 7f 7f 09 09 09 06     .>AAA>..........
     316:	3e 41 41 41 22 01 01 7f 01 01 43 4c 30 0c 03 0e     >AAA".....CL0...
     326:	11 7f 11 0e 63 14 08 14 63 7f 40 40 7f c0 07 08     ....c...c.@@....
     336:	08 7f 00 7f 40 7f 40 7f 7f 40 7f 40 ff 01 7f 48     ....@.@..@.@...H
     346:	48 30 7f 48 30 00 7f 7f 48 48 30 00 49 49 49 3e     H0.H0...HH0.III>
     356:	00 7f 08 3e 41 3e 46 29 19 09 7f 20 54 54 54 78     ...>A>F)... TTTx
     366:	3c 4a 4b 49 30 7c 54 54 28 00 7c 04 04 04 00 c0     <JKI0|TT(.|.....
     376:	7c 44 7c c0 38 54 54 54 18 44 28 7c 28 44 44 54     |D|.8TTT.D(|(DDT
     386:	54 28 00 7c 20 10 08 7c 7c 20 12 08 7c 7c 10 28     T(.| ..|| ..||.(
     396:	44 00 40 3c 04 04 7c 7c 08 10 08 7c 7c 10 10 7c     D.@<..||...||..|
     3a6:	00 38 44 44 44 38 7c 04 04 7c 00 7c 14 14 14 08     .8DDD8|..|.|....
     3b6:	38 44 44 44 20 04 04 7c 04 04 84 98 60 18 04 18     8DDD ..|....`...
     3c6:	24 fc 24 18 44 28 10 28 44 7c 40 40 7c c0 0c 10     $.$.D(.(D|@@|...
     3d6:	10 7c 00 7c 40 7c 40 7c 7c 40 7c 40 fc 04 7c 50     .|.|@|@||@|@..|P
     3e6:	50 20 7c 50 70 00 7c 7c 50 50 20 00 54 54 54 38     P |Pp.||PP .TTT8
     3f6:	00 7c 10 38 44 38 48 34 14 7c 00                    .|.8D8H4.|.

00000401 <PerToFill>:
     401:	00 02 03 05 09 10 1c 30 54 91 ff                    .......0T..

0000040c <__ctors_end>:
     40c:	11 24       	eor	r1, r1
     40e:	1f be       	out	0x3f, r1	; 63
     410:	cf e5       	ldi	r28, 0x5F	; 95
     412:	d4 e0       	ldi	r29, 0x04	; 4
     414:	de bf       	out	0x3e, r29	; 62
     416:	cd bf       	out	0x3d, r28	; 61

00000418 <__do_copy_data>:
     418:	10 e0       	ldi	r17, 0x00	; 0
     41a:	a0 e6       	ldi	r26, 0x60	; 96
     41c:	b0 e0       	ldi	r27, 0x00	; 0
     41e:	e2 e7       	ldi	r30, 0x72	; 114
     420:	f5 e1       	ldi	r31, 0x15	; 21
     422:	02 c0       	rjmp	.+4      	; 0x428 <__do_copy_data+0x10>
     424:	05 90       	lpm	r0, Z+
     426:	0d 92       	st	X+, r0
     428:	ae 3f       	cpi	r26, 0xFE	; 254
     42a:	b1 07       	cpc	r27, r17
     42c:	d9 f7       	brne	.-10     	; 0x424 <__do_copy_data+0xc>

0000042e <__do_clear_bss>:
     42e:	21 e0       	ldi	r18, 0x01	; 1
     430:	ae ef       	ldi	r26, 0xFE	; 254
     432:	b0 e0       	ldi	r27, 0x00	; 0
     434:	01 c0       	rjmp	.+2      	; 0x438 <.do_clear_bss_start>

00000436 <.do_clear_bss_loop>:
     436:	1d 92       	st	X+, r1

00000438 <.do_clear_bss_start>:
     438:	a2 37       	cpi	r26, 0x72	; 114
     43a:	b2 07       	cpc	r27, r18
     43c:	e1 f7       	brne	.-8      	; 0x436 <.do_clear_bss_loop>
     43e:	21 d5       	rcall	.+2626   	; 0xe82 <main>
     440:	96 c8       	rjmp	.-3796   	; 0xfffff56e <__eeprom_end+0xff7ef55c>

00000442 <__bad_interrupt>:
     442:	de cd       	rjmp	.-1092   	; 0x0 <__vectors>

00000444 <LCD5110_SendByte>:
     444:	93 98       	cbi	0x12, 3	; 18
     446:	61 11       	cpse	r22, r1
     448:	02 c0       	rjmp	.+4      	; 0x44e <LCD5110_SendByte+0xa>
     44a:	92 98       	cbi	0x12, 2	; 18
     44c:	0e c0       	rjmp	.+28     	; 0x46a <__stack+0xb>
     44e:	92 9a       	sbi	0x12, 2	; 18
     450:	0c c0       	rjmp	.+24     	; 0x46a <__stack+0xb>
     452:	88 23       	and	r24, r24
     454:	14 f4       	brge	.+4      	; 0x45a <LCD5110_SendByte+0x16>
     456:	91 9a       	sbi	0x12, 1	; 18
     458:	01 c0       	rjmp	.+2      	; 0x45c <LCD5110_SendByte+0x18>
     45a:	91 98       	cbi	0x12, 1	; 18
     45c:	90 98       	cbi	0x12, 0	; 18
     45e:	88 0f       	add	r24, r24
     460:	90 9a       	sbi	0x12, 0	; 18
     462:	91 50       	subi	r25, 0x01	; 1
     464:	b1 f7       	brne	.-20     	; 0x452 <LCD5110_SendByte+0xe>
     466:	93 9a       	sbi	0x12, 3	; 18
     468:	08 95       	ret
     46a:	98 e0       	ldi	r25, 0x08	; 8
     46c:	f2 cf       	rjmp	.-28     	; 0x452 <LCD5110_SendByte+0xe>

0000046e <LCD5110_Clear>:
     46e:	cf 93       	push	r28
     470:	df 93       	push	r29
     472:	60 e0       	ldi	r22, 0x00	; 0
     474:	80 e4       	ldi	r24, 0x40	; 64
     476:	e6 df       	rcall	.-52     	; 0x444 <LCD5110_SendByte>
     478:	60 e0       	ldi	r22, 0x00	; 0
     47a:	80 e8       	ldi	r24, 0x80	; 128
     47c:	e3 df       	rcall	.-58     	; 0x444 <LCD5110_SendByte>
     47e:	c8 ef       	ldi	r28, 0xF8	; 248
     480:	d1 e0       	ldi	r29, 0x01	; 1
     482:	61 e0       	ldi	r22, 0x01	; 1
     484:	80 e0       	ldi	r24, 0x00	; 0
     486:	de df       	rcall	.-68     	; 0x444 <LCD5110_SendByte>
     488:	21 97       	sbiw	r28, 0x01	; 1
     48a:	d9 f7       	brne	.-10     	; 0x482 <LCD5110_Clear+0x14>
     48c:	df 91       	pop	r29
     48e:	cf 91       	pop	r28
     490:	08 95       	ret

00000492 <LCD5110_Init>:
     492:	81 b3       	in	r24, 0x11	; 17
     494:	8f 61       	ori	r24, 0x1F	; 31
     496:	81 bb       	out	0x11, r24	; 17
     498:	94 98       	cbi	0x12, 4	; 18
	#else
		//round up by default
		__ticks_dc = (uint32_t)(ceil(fabs(__tmp)));
	#endif

	__builtin_avr_delay_cycles(__ticks_dc);
     49a:	82 e0       	ldi	r24, 0x02	; 2
     49c:	8a 95       	dec	r24
     49e:	f1 f7       	brne	.-4      	; 0x49c <LCD5110_Init+0xa>
     4a0:	00 c0       	rjmp	.+0      	; 0x4a2 <LCD5110_Init+0x10>
     4a2:	94 9a       	sbi	0x12, 4	; 18
     4a4:	93 98       	cbi	0x12, 3	; 18
     4a6:	82 e0       	ldi	r24, 0x02	; 2
     4a8:	8a 95       	dec	r24
     4aa:	f1 f7       	brne	.-4      	; 0x4a8 <LCD5110_Init+0x16>
     4ac:	00 c0       	rjmp	.+0      	; 0x4ae <LCD5110_Init+0x1c>
     4ae:	93 9a       	sbi	0x12, 3	; 18
     4b0:	82 e0       	ldi	r24, 0x02	; 2
     4b2:	8a 95       	dec	r24
     4b4:	f1 f7       	brne	.-4      	; 0x4b2 <LCD5110_Init+0x20>
     4b6:	00 c0       	rjmp	.+0      	; 0x4b8 <LCD5110_Init+0x26>
     4b8:	60 e0       	ldi	r22, 0x00	; 0
     4ba:	81 e2       	ldi	r24, 0x21	; 33
     4bc:	c3 df       	rcall	.-122    	; 0x444 <LCD5110_SendByte>
     4be:	60 e0       	ldi	r22, 0x00	; 0
     4c0:	88 ec       	ldi	r24, 0xC8	; 200
     4c2:	c0 df       	rcall	.-128    	; 0x444 <LCD5110_SendByte>
     4c4:	60 e0       	ldi	r22, 0x00	; 0
     4c6:	86 e0       	ldi	r24, 0x06	; 6
     4c8:	bd df       	rcall	.-134    	; 0x444 <LCD5110_SendByte>
     4ca:	60 e0       	ldi	r22, 0x00	; 0
     4cc:	83 e1       	ldi	r24, 0x13	; 19
     4ce:	ba df       	rcall	.-140    	; 0x444 <LCD5110_SendByte>
     4d0:	60 e0       	ldi	r22, 0x00	; 0
     4d2:	80 e2       	ldi	r24, 0x20	; 32
     4d4:	b7 df       	rcall	.-146    	; 0x444 <LCD5110_SendByte>
     4d6:	cb df       	rcall	.-106    	; 0x46e <LCD5110_Clear>
     4d8:	60 e0       	ldi	r22, 0x00	; 0
     4da:	8c e0       	ldi	r24, 0x0C	; 12
     4dc:	b3 df       	rcall	.-154    	; 0x444 <LCD5110_SendByte>
     4de:	93 98       	cbi	0x12, 3	; 18
     4e0:	08 95       	ret

000004e2 <LCD5110_SetXY>:
     4e2:	cf 93       	push	r28
     4e4:	c8 2f       	mov	r28, r24
     4e6:	86 2f       	mov	r24, r22
     4e8:	60 e0       	ldi	r22, 0x00	; 0
     4ea:	80 64       	ori	r24, 0x40	; 64
     4ec:	ab df       	rcall	.-170    	; 0x444 <LCD5110_SendByte>
     4ee:	60 e0       	ldi	r22, 0x00	; 0
     4f0:	8c 2f       	mov	r24, r28
     4f2:	80 68       	ori	r24, 0x80	; 128
     4f4:	a7 df       	rcall	.-178    	; 0x444 <LCD5110_SendByte>
     4f6:	cf 91       	pop	r28
     4f8:	08 95       	ret

000004fa <LCD5110_Putc>:
     4fa:	0f 93       	push	r16
     4fc:	1f 93       	push	r17
     4fe:	cf 93       	push	r28
     500:	df 93       	push	r29
     502:	80 3c       	cpi	r24, 0xC0	; 192
     504:	10 f0       	brcs	.+4      	; 0x50a <LCD5110_Putc+0x10>
     506:	81 56       	subi	r24, 0x61	; 97
     508:	01 c0       	rjmp	.+2      	; 0x50c <LCD5110_Putc+0x12>
     50a:	80 52       	subi	r24, 0x20	; 32
     50c:	90 e0       	ldi	r25, 0x00	; 0
     50e:	8c 01       	movw	r16, r24
     510:	00 0f       	add	r16, r16
     512:	11 1f       	adc	r17, r17
     514:	00 0f       	add	r16, r16
     516:	11 1f       	adc	r17, r17
     518:	08 0f       	add	r16, r24
     51a:	19 1f       	adc	r17, r25
     51c:	c0 e0       	ldi	r28, 0x00	; 0
     51e:	d0 e0       	ldi	r29, 0x00	; 0
     520:	fe 01       	movw	r30, r28
     522:	e0 0f       	add	r30, r16
     524:	f1 1f       	adc	r31, r17
     526:	ea 51       	subi	r30, 0x1A	; 26
     528:	ff 4f       	sbci	r31, 0xFF	; 255
     52a:	84 91       	lpm	r24, Z
     52c:	61 e0       	ldi	r22, 0x01	; 1
     52e:	8a df       	rcall	.-236    	; 0x444 <LCD5110_SendByte>
     530:	21 96       	adiw	r28, 0x01	; 1
     532:	c5 30       	cpi	r28, 0x05	; 5
     534:	d1 05       	cpc	r29, r1
     536:	a1 f7       	brne	.-24     	; 0x520 <LCD5110_Putc+0x26>
     538:	61 e0       	ldi	r22, 0x01	; 1
     53a:	80 e0       	ldi	r24, 0x00	; 0
     53c:	83 df       	rcall	.-250    	; 0x444 <LCD5110_SendByte>
     53e:	df 91       	pop	r29
     540:	cf 91       	pop	r28
     542:	1f 91       	pop	r17
     544:	0f 91       	pop	r16
     546:	08 95       	ret

00000548 <LCD5110_Prints>:
     548:	cf 93       	push	r28
     54a:	df 93       	push	r29
     54c:	ec 01       	movw	r28, r24
     54e:	86 2f       	mov	r24, r22
     550:	64 2f       	mov	r22, r20
     552:	c7 df       	rcall	.-114    	; 0x4e2 <LCD5110_SetXY>
     554:	88 81       	ld	r24, Y
     556:	88 23       	and	r24, r24
     558:	29 f0       	breq	.+10     	; 0x564 <LCD5110_Prints+0x1c>
     55a:	21 96       	adiw	r28, 0x01	; 1
     55c:	ce df       	rcall	.-100    	; 0x4fa <LCD5110_Putc>
     55e:	89 91       	ld	r24, Y+
     560:	81 11       	cpse	r24, r1
     562:	fc cf       	rjmp	.-8      	; 0x55c <LCD5110_Prints+0x14>
     564:	df 91       	pop	r29
     566:	cf 91       	pop	r28
     568:	08 95       	ret

0000056a <HeaderPrints>:
     56a:	3f 92       	push	r3
     56c:	4f 92       	push	r4
     56e:	5f 92       	push	r5
     570:	6f 92       	push	r6
     572:	7f 92       	push	r7
     574:	8f 92       	push	r8
     576:	9f 92       	push	r9
     578:	af 92       	push	r10
     57a:	bf 92       	push	r11
     57c:	cf 92       	push	r12
     57e:	df 92       	push	r13
     580:	ef 92       	push	r14
     582:	ff 92       	push	r15
     584:	0f 93       	push	r16
     586:	1f 93       	push	r17
     588:	cf 93       	push	r28
     58a:	df 93       	push	r29
     58c:	5c 01       	movw	r10, r24
     58e:	fc 01       	movw	r30, r24
     590:	80 81       	ld	r24, Z
     592:	88 23       	and	r24, r24
     594:	49 f0       	breq	.+18     	; 0x5a8 <HeaderPrints+0x3e>
     596:	10 e0       	ldi	r17, 0x00	; 0
     598:	1f 5f       	subi	r17, 0xFF	; 255
     59a:	f5 01       	movw	r30, r10
     59c:	e1 0f       	add	r30, r17
     59e:	f1 1d       	adc	r31, r1
     5a0:	80 81       	ld	r24, Z
     5a2:	81 11       	cpse	r24, r1
     5a4:	f9 cf       	rjmp	.-14     	; 0x598 <HeaderPrints+0x2e>
     5a6:	01 c0       	rjmp	.+2      	; 0x5aa <HeaderPrints+0x40>
     5a8:	10 e0       	ldi	r17, 0x00	; 0
     5aa:	60 e0       	ldi	r22, 0x00	; 0
     5ac:	80 e0       	ldi	r24, 0x00	; 0
     5ae:	99 df       	rcall	.-206    	; 0x4e2 <LCD5110_SetXY>
     5b0:	c8 ea       	ldi	r28, 0xA8	; 168
     5b2:	61 e0       	ldi	r22, 0x01	; 1
     5b4:	8f ef       	ldi	r24, 0xFF	; 255
     5b6:	46 df       	rcall	.-372    	; 0x444 <LCD5110_SendByte>
     5b8:	c1 50       	subi	r28, 0x01	; 1
     5ba:	d9 f7       	brne	.-10     	; 0x5b2 <HeaderPrints+0x48>
     5bc:	2a ef       	ldi	r18, 0xFA	; 250
     5be:	21 03       	mulsu	r18, r17
     5c0:	c0 01       	movw	r24, r0
     5c2:	11 24       	eor	r1, r1
     5c4:	8c 5a       	subi	r24, 0xAC	; 172
     5c6:	9f 4f       	sbci	r25, 0xFF	; 255
     5c8:	3c 01       	movw	r6, r24
     5ca:	1a f4       	brpl	.+6      	; 0x5d2 <HeaderPrints+0x68>
     5cc:	ef ef       	ldi	r30, 0xFF	; 255
     5ce:	6e 1a       	sub	r6, r30
     5d0:	7e 0a       	sbc	r7, r30
     5d2:	75 94       	asr	r7
     5d4:	67 94       	ror	r6
     5d6:	d1 2c       	mov	r13, r1
     5d8:	3a 2c       	mov	r3, r10
     5da:	4b 2c       	mov	r4, r11
     5dc:	51 2c       	mov	r5, r1
     5de:	81 2c       	mov	r8, r1
     5e0:	91 2c       	mov	r9, r1
     5e2:	0f 2e       	mov	r0, r31
     5e4:	f1 e6       	ldi	r31, 0x61	; 97
     5e6:	7f 2e       	mov	r7, r31
     5e8:	f0 2d       	mov	r31, r0
     5ea:	6d 2d       	mov	r22, r13
     5ec:	86 2d       	mov	r24, r6
     5ee:	79 df       	rcall	.-270    	; 0x4e2 <LCD5110_SetXY>
     5f0:	f5 01       	movw	r30, r10
     5f2:	80 81       	ld	r24, Z
     5f4:	88 23       	and	r24, r24
     5f6:	09 f4       	brne	.+2      	; 0x5fa <HeaderPrints+0x90>
     5f8:	49 c0       	rjmp	.+146    	; 0x68c <HeaderPrints+0x122>
     5fa:	e3 2c       	mov	r14, r3
     5fc:	f4 2c       	mov	r15, r4
     5fe:	c5 2c       	mov	r12, r5
     600:	80 3c       	cpi	r24, 0xC0	; 192
     602:	10 f4       	brcc	.+4      	; 0x608 <HeaderPrints+0x9e>
     604:	00 e2       	ldi	r16, 0x20	; 32
     606:	01 c0       	rjmp	.+2      	; 0x60a <HeaderPrints+0xa0>
     608:	07 2d       	mov	r16, r7
     60a:	c8 2d       	mov	r28, r8
     60c:	d9 2d       	mov	r29, r9
     60e:	10 e0       	ldi	r17, 0x00	; 0
     610:	dd 20       	and	r13, r13
     612:	b9 f0       	breq	.+46     	; 0x642 <HeaderPrints+0xd8>
     614:	f7 01       	movw	r30, r14
     616:	80 81       	ld	r24, Z
     618:	90 e0       	ldi	r25, 0x00	; 0
     61a:	80 1b       	sub	r24, r16
     61c:	91 0b       	sbc	r25, r17
     61e:	fc 01       	movw	r30, r24
     620:	ee 0f       	add	r30, r30
     622:	ff 1f       	adc	r31, r31
     624:	ee 0f       	add	r30, r30
     626:	ff 1f       	adc	r31, r31
     628:	e8 0f       	add	r30, r24
     62a:	f9 1f       	adc	r31, r25
     62c:	ea 51       	subi	r30, 0x1A	; 26
     62e:	ff 4f       	sbci	r31, 0xFF	; 255
     630:	ec 0f       	add	r30, r28
     632:	fd 1f       	adc	r31, r29
     634:	84 91       	lpm	r24, Z
     636:	82 95       	swap	r24
     638:	8f 70       	andi	r24, 0x0F	; 15
     63a:	61 e0       	ldi	r22, 0x01	; 1
     63c:	80 95       	com	r24
     63e:	02 df       	rcall	.-508    	; 0x444 <LCD5110_SendByte>
     640:	16 c0       	rjmp	.+44     	; 0x66e <HeaderPrints+0x104>
     642:	f7 01       	movw	r30, r14
     644:	80 81       	ld	r24, Z
     646:	90 e0       	ldi	r25, 0x00	; 0
     648:	80 1b       	sub	r24, r16
     64a:	91 0b       	sbc	r25, r17
     64c:	fc 01       	movw	r30, r24
     64e:	ee 0f       	add	r30, r30
     650:	ff 1f       	adc	r31, r31
     652:	ee 0f       	add	r30, r30
     654:	ff 1f       	adc	r31, r31
     656:	e8 0f       	add	r30, r24
     658:	f9 1f       	adc	r31, r25
     65a:	ea 51       	subi	r30, 0x1A	; 26
     65c:	ff 4f       	sbci	r31, 0xFF	; 255
     65e:	ec 0f       	add	r30, r28
     660:	fd 1f       	adc	r31, r29
     662:	84 91       	lpm	r24, Z
     664:	82 95       	swap	r24
     666:	80 7f       	andi	r24, 0xF0	; 240
     668:	61 e0       	ldi	r22, 0x01	; 1
     66a:	80 95       	com	r24
     66c:	eb de       	rcall	.-554    	; 0x444 <LCD5110_SendByte>
     66e:	21 96       	adiw	r28, 0x01	; 1
     670:	c5 30       	cpi	r28, 0x05	; 5
     672:	d1 05       	cpc	r29, r1
     674:	69 f6       	brne	.-102    	; 0x610 <HeaderPrints+0xa6>
     676:	61 e0       	ldi	r22, 0x01	; 1
     678:	8f ef       	ldi	r24, 0xFF	; 255
     67a:	e4 de       	rcall	.-568    	; 0x444 <LCD5110_SendByte>
     67c:	c3 94       	inc	r12
     67e:	75 01       	movw	r14, r10
     680:	ec 0c       	add	r14, r12
     682:	f1 1c       	adc	r15, r1
     684:	f7 01       	movw	r30, r14
     686:	80 81       	ld	r24, Z
     688:	81 11       	cpse	r24, r1
     68a:	ba cf       	rjmp	.-140    	; 0x600 <HeaderPrints+0x96>
     68c:	d3 94       	inc	r13
     68e:	f2 e0       	ldi	r31, 0x02	; 2
     690:	df 12       	cpse	r13, r31
     692:	ab cf       	rjmp	.-170    	; 0x5ea <HeaderPrints+0x80>
     694:	df 91       	pop	r29
     696:	cf 91       	pop	r28
     698:	1f 91       	pop	r17
     69a:	0f 91       	pop	r16
     69c:	ff 90       	pop	r15
     69e:	ef 90       	pop	r14
     6a0:	df 90       	pop	r13
     6a2:	cf 90       	pop	r12
     6a4:	bf 90       	pop	r11
     6a6:	af 90       	pop	r10
     6a8:	9f 90       	pop	r9
     6aa:	8f 90       	pop	r8
     6ac:	7f 90       	pop	r7
     6ae:	6f 90       	pop	r6
     6b0:	5f 90       	pop	r5
     6b2:	4f 90       	pop	r4
     6b4:	3f 90       	pop	r3
     6b6:	08 95       	ret

000006b8 <LCD5110_LargeNumPrints>:
     6b8:	9f 92       	push	r9
     6ba:	af 92       	push	r10
     6bc:	bf 92       	push	r11
     6be:	cf 92       	push	r12
     6c0:	df 92       	push	r13
     6c2:	ef 92       	push	r14
     6c4:	ff 92       	push	r15
     6c6:	0f 93       	push	r16
     6c8:	1f 93       	push	r17
     6ca:	cf 93       	push	r28
     6cc:	df 93       	push	r29
     6ce:	fc 01       	movw	r30, r24
     6d0:	20 81       	ld	r18, Z
     6d2:	22 23       	and	r18, r18
     6d4:	c9 f1       	breq	.+114    	; 0x748 <LCD5110_LargeNumPrints+0x90>
     6d6:	b4 2e       	mov	r11, r20
     6d8:	7c 01       	movw	r14, r24
     6da:	d6 2e       	mov	r13, r22
     6dc:	8c 01       	movw	r16, r24
     6de:	c1 2c       	mov	r12, r1
     6e0:	a1 2c       	mov	r10, r1
     6e2:	d1 e0       	ldi	r29, 0x01	; 1
     6e4:	99 24       	eor	r9, r9
     6e6:	93 94       	inc	r9
     6e8:	94 0e       	add	r9, r20
     6ea:	6b 2d       	mov	r22, r11
     6ec:	8d 2d       	mov	r24, r13
     6ee:	f9 de       	rcall	.-526    	; 0x4e2 <LCD5110_SetXY>
     6f0:	f8 01       	movw	r30, r16
     6f2:	00 81       	ld	r16, Z
     6f4:	00 32       	cpi	r16, 0x20	; 32
     6f6:	21 f0       	breq	.+8      	; 0x700 <LCD5110_LargeNumPrints+0x48>
     6f8:	0a 33       	cpi	r16, 0x3A	; 58
     6fa:	21 f0       	breq	.+8      	; 0x704 <LCD5110_LargeNumPrints+0x4c>
     6fc:	0e 52       	subi	r16, 0x2E	; 46
     6fe:	03 c0       	rjmp	.+6      	; 0x706 <LCD5110_LargeNumPrints+0x4e>
     700:	0a 2d       	mov	r16, r10
     702:	01 c0       	rjmp	.+2      	; 0x706 <LCD5110_LargeNumPrints+0x4e>
     704:	0d 2f       	mov	r16, r29
     706:	f0 e1       	ldi	r31, 0x10	; 16
     708:	0f 9f       	mul	r16, r31
     70a:	80 01       	movw	r16, r0
     70c:	11 24       	eor	r1, r1
     70e:	0a 5d       	subi	r16, 0xDA	; 218
     710:	1f 4f       	sbci	r17, 0xFF	; 255
     712:	cd 2f       	mov	r28, r29
     714:	03 c0       	rjmp	.+6      	; 0x71c <LCD5110_LargeNumPrints+0x64>
     716:	0f 5f       	subi	r16, 0xFF	; 255
     718:	1f 4f       	sbci	r17, 0xFF	; 255
     71a:	cf 5f       	subi	r28, 0xFF	; 255
     71c:	f8 01       	movw	r30, r16
     71e:	84 91       	lpm	r24, Z
     720:	6d 2f       	mov	r22, r29
     722:	90 de       	rcall	.-736    	; 0x444 <LCD5110_SendByte>
     724:	c8 30       	cpi	r28, 0x08	; 8
     726:	21 f4       	brne	.+8      	; 0x730 <LCD5110_LargeNumPrints+0x78>
     728:	69 2d       	mov	r22, r9
     72a:	8d 2d       	mov	r24, r13
     72c:	da de       	rcall	.-588    	; 0x4e2 <LCD5110_SetXY>
     72e:	f3 cf       	rjmp	.-26     	; 0x716 <LCD5110_LargeNumPrints+0x5e>
     730:	c0 31       	cpi	r28, 0x10	; 16
     732:	88 f3       	brcs	.-30     	; 0x716 <LCD5110_LargeNumPrints+0x5e>
     734:	c3 94       	inc	r12
     736:	87 01       	movw	r16, r14
     738:	0c 0d       	add	r16, r12
     73a:	11 1d       	adc	r17, r1
     73c:	f8 e0       	ldi	r31, 0x08	; 8
     73e:	df 0e       	add	r13, r31
     740:	f8 01       	movw	r30, r16
     742:	80 81       	ld	r24, Z
     744:	81 11       	cpse	r24, r1
     746:	d1 cf       	rjmp	.-94     	; 0x6ea <LCD5110_LargeNumPrints+0x32>
     748:	df 91       	pop	r29
     74a:	cf 91       	pop	r28
     74c:	1f 91       	pop	r17
     74e:	0f 91       	pop	r16
     750:	ff 90       	pop	r15
     752:	ef 90       	pop	r14
     754:	df 90       	pop	r13
     756:	cf 90       	pop	r12
     758:	bf 90       	pop	r11
     75a:	af 90       	pop	r10
     75c:	9f 90       	pop	r9
     75e:	08 95       	ret

00000760 <ENC_Check>:
     760:	80 91 68 01 	lds	r24, 0x0168	; 0x800168 <__ENC_PrevState>
     764:	80 33       	cpi	r24, 0x30	; 48
     766:	79 f4       	brne	.+30     	; 0x786 <ENC_Check+0x26>
     768:	83 b3       	in	r24, 0x13	; 19
     76a:	80 73       	andi	r24, 0x30	; 48
     76c:	80 33       	cpi	r24, 0x30	; 48
     76e:	59 f0       	breq	.+22     	; 0x786 <ENC_Check+0x26>
     770:	83 b3       	in	r24, 0x13	; 19
     772:	80 73       	andi	r24, 0x30	; 48
     774:	80 32       	cpi	r24, 0x20	; 32
     776:	21 f0       	breq	.+8      	; 0x780 <ENC_Check+0x20>
     778:	89 e9       	ldi	r24, 0x99	; 153
     77a:	97 e0       	ldi	r25, 0x07	; 7
     77c:	62 d0       	rcall	.+196    	; 0x842 <SendTask>
     77e:	03 c0       	rjmp	.+6      	; 0x786 <ENC_Check+0x26>
     780:	8d e3       	ldi	r24, 0x3D	; 61
     782:	98 e0       	ldi	r25, 0x08	; 8
     784:	5e d0       	rcall	.+188    	; 0x842 <SendTask>
     786:	83 b3       	in	r24, 0x13	; 19
     788:	80 73       	andi	r24, 0x30	; 48
     78a:	80 93 68 01 	sts	0x0168, r24	; 0x800168 <__ENC_PrevState>
     78e:	9b 99       	sbic	0x13, 3	; 19
     790:	0d c0       	rjmp	.+26     	; 0x7ac <ENC_Check+0x4c>
     792:	80 91 67 01 	lds	r24, 0x0167	; 0x800167 <__ENC_But_CNT>
     796:	88 23       	and	r24, r24
     798:	a9 f0       	breq	.+42     	; 0x7c4 <ENC_Check+0x64>
     79a:	81 50       	subi	r24, 0x01	; 1
     79c:	80 93 67 01 	sts	0x0167, r24	; 0x800167 <__ENC_But_CNT>
     7a0:	81 11       	cpse	r24, r1
     7a2:	10 c0       	rjmp	.+32     	; 0x7c4 <ENC_Check+0x64>
     7a4:	8d e9       	ldi	r24, 0x9D	; 157
     7a6:	99 e0       	ldi	r25, 0x09	; 9
     7a8:	4c d0       	rcall	.+152    	; 0x842 <SendTask>
     7aa:	0c c0       	rjmp	.+24     	; 0x7c4 <ENC_Check+0x64>
     7ac:	80 91 67 01 	lds	r24, 0x0167	; 0x800167 <__ENC_But_CNT>
     7b0:	88 23       	and	r24, r24
     7b2:	29 f0       	breq	.+10     	; 0x7be <ENC_Check+0x5e>
     7b4:	84 36       	cpi	r24, 0x64	; 100
     7b6:	19 f0       	breq	.+6      	; 0x7be <ENC_Check+0x5e>
     7b8:	83 e6       	ldi	r24, 0x63	; 99
     7ba:	99 e0       	ldi	r25, 0x09	; 9
     7bc:	42 d0       	rcall	.+132    	; 0x842 <SendTask>
     7be:	84 e6       	ldi	r24, 0x64	; 100
     7c0:	80 93 67 01 	sts	0x0167, r24	; 0x800167 <__ENC_But_CNT>
     7c4:	65 e0       	ldi	r22, 0x05	; 5
     7c6:	70 e0       	ldi	r23, 0x00	; 0
     7c8:	80 eb       	ldi	r24, 0xB0	; 176
     7ca:	93 e0       	ldi	r25, 0x03	; 3
     7cc:	8b d0       	rcall	.+278    	; 0x8e4 <SendTimerTask>
     7ce:	08 95       	ret

000007d0 <ENC_Init>:
     7d0:	80 e3       	ldi	r24, 0x30	; 48
     7d2:	80 93 68 01 	sts	0x0168, r24	; 0x800168 <__ENC_PrevState>
     7d6:	84 e6       	ldi	r24, 0x64	; 100
     7d8:	80 93 67 01 	sts	0x0167, r24	; 0x800167 <__ENC_But_CNT>
     7dc:	84 b3       	in	r24, 0x14	; 20
     7de:	87 7c       	andi	r24, 0xC7	; 199
     7e0:	84 bb       	out	0x14, r24	; 20
     7e2:	85 b3       	in	r24, 0x15	; 21
     7e4:	88 63       	ori	r24, 0x38	; 56
     7e6:	85 bb       	out	0x15, r24	; 21
     7e8:	80 eb       	ldi	r24, 0xB0	; 176
     7ea:	93 e0       	ldi	r25, 0x03	; 3
     7ec:	2a d0       	rcall	.+84     	; 0x842 <SendTask>
     7ee:	08 95       	ret

000007f0 <Idle>:
     7f0:	08 95       	ret

000007f2 <RTOS_Init>:
     7f2:	10 92 66 01 	sts	0x0166, r1	; 0x800166 <__TM_Start>
     7f6:	10 92 69 01 	sts	0x0169, r1	; 0x800169 <__TM_End>
     7fa:	10 92 65 01 	sts	0x0165, r1	; 0x800165 <__TM_TaskCnt>
     7fe:	80 e0       	ldi	r24, 0x00	; 0
     800:	90 e0       	ldi	r25, 0x00	; 0
     802:	28 ef       	ldi	r18, 0xF8	; 248
     804:	33 e0       	ldi	r19, 0x03	; 3
     806:	fc 01       	movw	r30, r24
     808:	ee 0f       	add	r30, r30
     80a:	ff 1f       	adc	r31, r31
     80c:	ee 0f       	add	r30, r30
     80e:	ff 1f       	adc	r31, r31
     810:	e2 50       	subi	r30, 0x02	; 2
     812:	ff 4f       	sbci	r31, 0xFF	; 255
     814:	31 83       	std	Z+1, r19	; 0x01
     816:	20 83       	st	Z, r18
     818:	13 82       	std	Z+3, r1	; 0x03
     81a:	12 82       	std	Z+2, r1	; 0x02
     81c:	01 96       	adiw	r24, 0x01	; 1
     81e:	8f 30       	cpi	r24, 0x0F	; 15
     820:	91 05       	cpc	r25, r1
     822:	89 f7       	brne	.-30     	; 0x806 <RTOS_Init+0x14>
     824:	08 95       	ret

00000826 <RTOS_Run>:
     826:	f8 94       	cli
     828:	83 b7       	in	r24, 0x33	; 51
     82a:	8b 7f       	andi	r24, 0xFB	; 251
     82c:	83 bf       	out	0x33, r24	; 51
     82e:	83 b7       	in	r24, 0x33	; 51
     830:	83 60       	ori	r24, 0x03	; 3
     832:	83 bf       	out	0x33, r24	; 51
     834:	83 e8       	ldi	r24, 0x83	; 131
     836:	82 bf       	out	0x32, r24	; 50
     838:	89 b7       	in	r24, 0x39	; 57
     83a:	81 60       	ori	r24, 0x01	; 1
     83c:	89 bf       	out	0x39, r24	; 57
     83e:	78 94       	sei
     840:	08 95       	ret

00000842 <SendTask>:
     842:	0f b6       	in	r0, 0x3f	; 63
     844:	07 fe       	sbrs	r0, 7
     846:	16 c0       	rjmp	.+44     	; 0x874 <SendTask+0x32>
     848:	f8 94       	cli
     84a:	20 91 65 01 	lds	r18, 0x0165	; 0x800165 <__TM_TaskCnt>
     84e:	24 31       	cpi	r18, 0x14	; 20
     850:	e0 f0       	brcs	.+56     	; 0x88a <SendTask+0x48>
     852:	0e c0       	rjmp	.+28     	; 0x870 <SendTask+0x2e>
     854:	91 e0       	ldi	r25, 0x01	; 1
     856:	01 c0       	rjmp	.+2      	; 0x85a <SendTask+0x18>
     858:	90 e0       	ldi	r25, 0x00	; 0
     85a:	10 92 69 01 	sts	0x0169, r1	; 0x800169 <__TM_End>
     85e:	80 91 65 01 	lds	r24, 0x0165	; 0x800165 <__TM_TaskCnt>
     862:	8f 5f       	subi	r24, 0xFF	; 255
     864:	80 93 65 01 	sts	0x0165, r24	; 0x800165 <__TM_TaskCnt>
     868:	99 23       	and	r25, r25
     86a:	d9 f1       	breq	.+118    	; 0x8e2 <SendTask+0xa0>
     86c:	78 94       	sei
     86e:	08 95       	ret
     870:	78 94       	sei
     872:	08 95       	ret
     874:	20 91 65 01 	lds	r18, 0x0165	; 0x800165 <__TM_TaskCnt>
     878:	24 31       	cpi	r18, 0x14	; 20
     87a:	00 f1       	brcs	.+64     	; 0x8bc <SendTask+0x7a>
     87c:	08 95       	ret
     87e:	80 91 65 01 	lds	r24, 0x0165	; 0x800165 <__TM_TaskCnt>
     882:	8f 5f       	subi	r24, 0xFF	; 255
     884:	80 93 65 01 	sts	0x0165, r24	; 0x800165 <__TM_TaskCnt>
     888:	f1 cf       	rjmp	.-30     	; 0x86c <SendTask+0x2a>
     88a:	e0 91 69 01 	lds	r30, 0x0169	; 0x800169 <__TM_End>
     88e:	f0 e0       	ldi	r31, 0x00	; 0
     890:	ee 0f       	add	r30, r30
     892:	ff 1f       	adc	r31, r31
     894:	e6 5c       	subi	r30, 0xC6	; 198
     896:	fe 4f       	sbci	r31, 0xFE	; 254
     898:	91 83       	std	Z+1, r25	; 0x01
     89a:	80 83       	st	Z, r24
     89c:	80 91 69 01 	lds	r24, 0x0169	; 0x800169 <__TM_End>
     8a0:	8f 5f       	subi	r24, 0xFF	; 255
     8a2:	80 93 69 01 	sts	0x0169, r24	; 0x800169 <__TM_End>
     8a6:	80 91 69 01 	lds	r24, 0x0169	; 0x800169 <__TM_End>
     8aa:	84 31       	cpi	r24, 0x14	; 20
     8ac:	41 f7       	brne	.-48     	; 0x87e <SendTask+0x3c>
     8ae:	d2 cf       	rjmp	.-92     	; 0x854 <SendTask+0x12>
     8b0:	80 91 65 01 	lds	r24, 0x0165	; 0x800165 <__TM_TaskCnt>
     8b4:	8f 5f       	subi	r24, 0xFF	; 255
     8b6:	80 93 65 01 	sts	0x0165, r24	; 0x800165 <__TM_TaskCnt>
     8ba:	08 95       	ret
     8bc:	e0 91 69 01 	lds	r30, 0x0169	; 0x800169 <__TM_End>
     8c0:	f0 e0       	ldi	r31, 0x00	; 0
     8c2:	ee 0f       	add	r30, r30
     8c4:	ff 1f       	adc	r31, r31
     8c6:	e6 5c       	subi	r30, 0xC6	; 198
     8c8:	fe 4f       	sbci	r31, 0xFE	; 254
     8ca:	91 83       	std	Z+1, r25	; 0x01
     8cc:	80 83       	st	Z, r24
     8ce:	80 91 69 01 	lds	r24, 0x0169	; 0x800169 <__TM_End>
     8d2:	8f 5f       	subi	r24, 0xFF	; 255
     8d4:	80 93 69 01 	sts	0x0169, r24	; 0x800169 <__TM_End>
     8d8:	80 91 69 01 	lds	r24, 0x0169	; 0x800169 <__TM_End>
     8dc:	84 31       	cpi	r24, 0x14	; 20
     8de:	41 f7       	brne	.-48     	; 0x8b0 <SendTask+0x6e>
     8e0:	bb cf       	rjmp	.-138    	; 0x858 <SendTask+0x16>
     8e2:	08 95       	ret

000008e4 <SendTimerTask>:
     8e4:	cf 93       	push	r28
     8e6:	0f b6       	in	r0, 0x3f	; 63
     8e8:	07 fe       	sbrs	r0, 7
     8ea:	0c c0       	rjmp	.+24     	; 0x904 <SendTimerTask+0x20>
     8ec:	f8 94       	cli
     8ee:	c1 e0       	ldi	r28, 0x01	; 1
     8f0:	0a c0       	rjmp	.+20     	; 0x906 <SendTimerTask+0x22>
     8f2:	2f 5f       	subi	r18, 0xFF	; 255
     8f4:	3f 4f       	sbci	r19, 0xFF	; 255
     8f6:	2f 30       	cpi	r18, 0x0F	; 15
     8f8:	31 05       	cpc	r19, r1
     8fa:	39 f4       	brne	.+14     	; 0x90a <SendTimerTask+0x26>
     8fc:	cc 23       	and	r28, r28
     8fe:	11 f1       	breq	.+68     	; 0x944 <SendTimerTask+0x60>
     900:	78 94       	sei
     902:	20 c0       	rjmp	.+64     	; 0x944 <SendTimerTask+0x60>
     904:	c0 e0       	ldi	r28, 0x00	; 0
     906:	20 e0       	ldi	r18, 0x00	; 0
     908:	30 e0       	ldi	r19, 0x00	; 0
     90a:	d9 01       	movw	r26, r18
     90c:	f9 01       	movw	r30, r18
     90e:	ee 0f       	add	r30, r30
     910:	ff 1f       	adc	r31, r31
     912:	ee 0f       	add	r30, r30
     914:	ff 1f       	adc	r31, r31
     916:	e2 50       	subi	r30, 0x02	; 2
     918:	ff 4f       	sbci	r31, 0xFF	; 255
     91a:	40 81       	ld	r20, Z
     91c:	51 81       	ldd	r21, Z+1	; 0x01
     91e:	48 5f       	subi	r20, 0xF8	; 248
     920:	53 40       	sbci	r21, 0x03	; 3
     922:	39 f7       	brne	.-50     	; 0x8f2 <SendTimerTask+0xe>
     924:	cc 23       	and	r28, r28
     926:	09 f0       	breq	.+2      	; 0x92a <SendTimerTask+0x46>
     928:	78 94       	sei
     92a:	aa 0f       	add	r26, r26
     92c:	bb 1f       	adc	r27, r27
     92e:	aa 0f       	add	r26, r26
     930:	bb 1f       	adc	r27, r27
     932:	a2 50       	subi	r26, 0x02	; 2
     934:	bf 4f       	sbci	r27, 0xFF	; 255
     936:	11 96       	adiw	r26, 0x01	; 1
     938:	9c 93       	st	X, r25
     93a:	8e 93       	st	-X, r24
     93c:	13 96       	adiw	r26, 0x03	; 3
     93e:	7c 93       	st	X, r23
     940:	6e 93       	st	-X, r22
     942:	12 97       	sbiw	r26, 0x02	; 2
     944:	cf 91       	pop	r28
     946:	08 95       	ret

00000948 <UpdateTimerTask>:
     948:	dc 01       	movw	r26, r24
     94a:	80 91 fe 00 	lds	r24, 0x00FE	; 0x8000fe <__data_end>
     94e:	90 91 ff 00 	lds	r25, 0x00FF	; 0x8000ff <__data_end+0x1>
     952:	8a 17       	cp	r24, r26
     954:	9b 07       	cpc	r25, r27
     956:	89 f0       	breq	.+34     	; 0x97a <UpdateTimerTask+0x32>
     958:	90 e0       	ldi	r25, 0x00	; 0
     95a:	9f 5f       	subi	r25, 0xFF	; 255
     95c:	29 2f       	mov	r18, r25
     95e:	30 e0       	ldi	r19, 0x00	; 0
     960:	f9 01       	movw	r30, r18
     962:	ee 0f       	add	r30, r30
     964:	ff 1f       	adc	r31, r31
     966:	ee 0f       	add	r30, r30
     968:	ff 1f       	adc	r31, r31
     96a:	e2 50       	subi	r30, 0x02	; 2
     96c:	ff 4f       	sbci	r31, 0xFF	; 255
     96e:	40 81       	ld	r20, Z
     970:	51 81       	ldd	r21, Z+1	; 0x01
     972:	4a 17       	cp	r20, r26
     974:	5b 07       	cpc	r21, r27
     976:	89 f7       	brne	.-30     	; 0x95a <UpdateTimerTask+0x12>
     978:	02 c0       	rjmp	.+4      	; 0x97e <UpdateTimerTask+0x36>
     97a:	20 e0       	ldi	r18, 0x00	; 0
     97c:	30 e0       	ldi	r19, 0x00	; 0
     97e:	22 0f       	add	r18, r18
     980:	33 1f       	adc	r19, r19
     982:	22 0f       	add	r18, r18
     984:	33 1f       	adc	r19, r19
     986:	f9 01       	movw	r30, r18
     988:	e2 50       	subi	r30, 0x02	; 2
     98a:	ff 4f       	sbci	r31, 0xFF	; 255
     98c:	73 83       	std	Z+3, r23	; 0x03
     98e:	62 83       	std	Z+2, r22	; 0x02
     990:	08 95       	ret

00000992 <RemoveTask>:
     992:	bc 01       	movw	r22, r24
     994:	80 91 fe 00 	lds	r24, 0x00FE	; 0x8000fe <__data_end>
     998:	90 91 ff 00 	lds	r25, 0x00FF	; 0x8000ff <__data_end+0x1>
     99c:	86 17       	cp	r24, r22
     99e:	97 07       	cpc	r25, r23
     9a0:	51 f4       	brne	.+20     	; 0x9b6 <RemoveTask+0x24>
     9a2:	90 e0       	ldi	r25, 0x00	; 0
     9a4:	17 c0       	rjmp	.+46     	; 0x9d4 <RemoveTask+0x42>
     9a6:	91 e0       	ldi	r25, 0x01	; 1
     9a8:	92 0f       	add	r25, r18
     9aa:	2f 5f       	subi	r18, 0xFF	; 255
     9ac:	3f 4f       	sbci	r19, 0xFF	; 255
     9ae:	2f 30       	cpi	r18, 0x0F	; 15
     9b0:	31 05       	cpc	r19, r1
     9b2:	19 f4       	brne	.+6      	; 0x9ba <RemoveTask+0x28>
     9b4:	0f c0       	rjmp	.+30     	; 0x9d4 <RemoveTask+0x42>
     9b6:	21 e0       	ldi	r18, 0x01	; 1
     9b8:	30 e0       	ldi	r19, 0x00	; 0
     9ba:	92 2f       	mov	r25, r18
     9bc:	f9 01       	movw	r30, r18
     9be:	ee 0f       	add	r30, r30
     9c0:	ff 1f       	adc	r31, r31
     9c2:	ee 0f       	add	r30, r30
     9c4:	ff 1f       	adc	r31, r31
     9c6:	e2 50       	subi	r30, 0x02	; 2
     9c8:	ff 4f       	sbci	r31, 0xFF	; 255
     9ca:	40 81       	ld	r20, Z
     9cc:	51 81       	ldd	r21, Z+1	; 0x01
     9ce:	46 17       	cp	r20, r22
     9d0:	57 07       	cpc	r21, r23
     9d2:	49 f7       	brne	.-46     	; 0x9a6 <RemoveTask+0x14>
     9d4:	e9 2f       	mov	r30, r25
     9d6:	f0 e0       	ldi	r31, 0x00	; 0
     9d8:	ee 0f       	add	r30, r30
     9da:	ff 1f       	adc	r31, r31
     9dc:	ee 0f       	add	r30, r30
     9de:	ff 1f       	adc	r31, r31
     9e0:	e2 50       	subi	r30, 0x02	; 2
     9e2:	ff 4f       	sbci	r31, 0xFF	; 255
     9e4:	88 ef       	ldi	r24, 0xF8	; 248
     9e6:	93 e0       	ldi	r25, 0x03	; 3
     9e8:	91 83       	std	Z+1, r25	; 0x01
     9ea:	80 83       	st	Z, r24
     9ec:	82 81       	ldd	r24, Z+2	; 0x02
     9ee:	93 81       	ldd	r25, Z+3	; 0x03
     9f0:	08 95       	ret

000009f2 <TaskManager>:
     9f2:	f8 94       	cli
     9f4:	80 91 65 01 	lds	r24, 0x0165	; 0x800165 <__TM_TaskCnt>
     9f8:	88 23       	and	r24, r24
     9fa:	e1 f0       	breq	.+56     	; 0xa34 <TaskManager+0x42>
     9fc:	e0 91 66 01 	lds	r30, 0x0166	; 0x800166 <__TM_Start>
     a00:	f0 e0       	ldi	r31, 0x00	; 0
     a02:	ee 0f       	add	r30, r30
     a04:	ff 1f       	adc	r31, r31
     a06:	e6 5c       	subi	r30, 0xC6	; 198
     a08:	fe 4f       	sbci	r31, 0xFE	; 254
     a0a:	01 90       	ld	r0, Z+
     a0c:	f0 81       	ld	r31, Z
     a0e:	e0 2d       	mov	r30, r0
     a10:	80 91 66 01 	lds	r24, 0x0166	; 0x800166 <__TM_Start>
     a14:	8f 5f       	subi	r24, 0xFF	; 255
     a16:	80 93 66 01 	sts	0x0166, r24	; 0x800166 <__TM_Start>
     a1a:	80 91 66 01 	lds	r24, 0x0166	; 0x800166 <__TM_Start>
     a1e:	84 31       	cpi	r24, 0x14	; 20
     a20:	11 f4       	brne	.+4      	; 0xa26 <TaskManager+0x34>
     a22:	10 92 66 01 	sts	0x0166, r1	; 0x800166 <__TM_Start>
     a26:	80 91 65 01 	lds	r24, 0x0165	; 0x800165 <__TM_TaskCnt>
     a2a:	81 50       	subi	r24, 0x01	; 1
     a2c:	80 93 65 01 	sts	0x0165, r24	; 0x800165 <__TM_TaskCnt>
     a30:	78 94       	sei
     a32:	09 95       	icall
     a34:	78 94       	sei
     a36:	08 95       	ret

00000a38 <__vector_9>:
     a38:	1f 92       	push	r1
     a3a:	0f 92       	push	r0
     a3c:	0f b6       	in	r0, 0x3f	; 63
     a3e:	0f 92       	push	r0
     a40:	11 24       	eor	r1, r1
     a42:	ef 92       	push	r14
     a44:	ff 92       	push	r15
     a46:	0f 93       	push	r16
     a48:	1f 93       	push	r17
     a4a:	2f 93       	push	r18
     a4c:	3f 93       	push	r19
     a4e:	4f 93       	push	r20
     a50:	5f 93       	push	r21
     a52:	6f 93       	push	r22
     a54:	7f 93       	push	r23
     a56:	8f 93       	push	r24
     a58:	9f 93       	push	r25
     a5a:	af 93       	push	r26
     a5c:	bf 93       	push	r27
     a5e:	cf 93       	push	r28
     a60:	df 93       	push	r29
     a62:	ef 93       	push	r30
     a64:	ff 93       	push	r31
     a66:	83 e8       	ldi	r24, 0x83	; 131
     a68:	82 bf       	out	0x32, r24	; 50
     a6a:	e1 2c       	mov	r14, r1
     a6c:	f1 2c       	mov	r15, r1
     a6e:	08 ef       	ldi	r16, 0xF8	; 248
     a70:	13 e0       	ldi	r17, 0x03	; 3
     a72:	c7 01       	movw	r24, r14
     a74:	f7 01       	movw	r30, r14
     a76:	ee 0f       	add	r30, r30
     a78:	ff 1f       	adc	r31, r31
     a7a:	ee 0f       	add	r30, r30
     a7c:	ff 1f       	adc	r31, r31
     a7e:	e2 50       	subi	r30, 0x02	; 2
     a80:	ff 4f       	sbci	r31, 0xFF	; 255
     a82:	20 81       	ld	r18, Z
     a84:	31 81       	ldd	r19, Z+1	; 0x01
     a86:	28 5f       	subi	r18, 0xF8	; 248
     a88:	33 40       	sbci	r19, 0x03	; 3
     a8a:	21 f1       	breq	.+72     	; 0xad4 <__vector_9+0x9c>
     a8c:	f7 01       	movw	r30, r14
     a8e:	ee 0f       	add	r30, r30
     a90:	ff 1f       	adc	r31, r31
     a92:	ee 0f       	add	r30, r30
     a94:	ff 1f       	adc	r31, r31
     a96:	e2 50       	subi	r30, 0x02	; 2
     a98:	ff 4f       	sbci	r31, 0xFF	; 255
     a9a:	22 81       	ldd	r18, Z+2	; 0x02
     a9c:	33 81       	ldd	r19, Z+3	; 0x03
     a9e:	23 2b       	or	r18, r19
     aa0:	69 f0       	breq	.+26     	; 0xabc <__vector_9+0x84>
     aa2:	88 0f       	add	r24, r24
     aa4:	99 1f       	adc	r25, r25
     aa6:	88 0f       	add	r24, r24
     aa8:	99 1f       	adc	r25, r25
     aaa:	fc 01       	movw	r30, r24
     aac:	e2 50       	subi	r30, 0x02	; 2
     aae:	ff 4f       	sbci	r31, 0xFF	; 255
     ab0:	82 81       	ldd	r24, Z+2	; 0x02
     ab2:	93 81       	ldd	r25, Z+3	; 0x03
     ab4:	01 97       	sbiw	r24, 0x01	; 1
     ab6:	93 83       	std	Z+3, r25	; 0x03
     ab8:	82 83       	std	Z+2, r24	; 0x02
     aba:	0c c0       	rjmp	.+24     	; 0xad4 <__vector_9+0x9c>
     abc:	88 0f       	add	r24, r24
     abe:	99 1f       	adc	r25, r25
     ac0:	88 0f       	add	r24, r24
     ac2:	99 1f       	adc	r25, r25
     ac4:	ec 01       	movw	r28, r24
     ac6:	c2 50       	subi	r28, 0x02	; 2
     ac8:	df 4f       	sbci	r29, 0xFF	; 255
     aca:	88 81       	ld	r24, Y
     acc:	99 81       	ldd	r25, Y+1	; 0x01
     ace:	b9 de       	rcall	.-654    	; 0x842 <SendTask>
     ad0:	19 83       	std	Y+1, r17	; 0x01
     ad2:	08 83       	st	Y, r16
     ad4:	8f ef       	ldi	r24, 0xFF	; 255
     ad6:	e8 1a       	sub	r14, r24
     ad8:	f8 0a       	sbc	r15, r24
     ada:	4f e0       	ldi	r20, 0x0F	; 15
     adc:	e4 16       	cp	r14, r20
     ade:	f1 04       	cpc	r15, r1
     ae0:	41 f6       	brne	.-112    	; 0xa72 <__vector_9+0x3a>
     ae2:	ff 91       	pop	r31
     ae4:	ef 91       	pop	r30
     ae6:	df 91       	pop	r29
     ae8:	cf 91       	pop	r28
     aea:	bf 91       	pop	r27
     aec:	af 91       	pop	r26
     aee:	9f 91       	pop	r25
     af0:	8f 91       	pop	r24
     af2:	7f 91       	pop	r23
     af4:	6f 91       	pop	r22
     af6:	5f 91       	pop	r21
     af8:	4f 91       	pop	r20
     afa:	3f 91       	pop	r19
     afc:	2f 91       	pop	r18
     afe:	1f 91       	pop	r17
     b00:	0f 91       	pop	r16
     b02:	ff 90       	pop	r15
     b04:	ef 90       	pop	r14
     b06:	0f 90       	pop	r0
     b08:	0f be       	out	0x3f, r0	; 63
     b0a:	0f 90       	pop	r0
     b0c:	1f 90       	pop	r1
     b0e:	18 95       	reti

00000b10 <BuzzerOFF>:
	}
}

void BuzzerOFF(void)
{
	BuzzerPort &= ~(1<<BuzzerNPin);
     b10:	aa 98       	cbi	0x15, 2	; 21
     b12:	08 95       	ret

00000b14 <PrintParameters>:



/*Объедени DisplayUpdate и PrintParameters*/
void PrintParameters(void)
{	
     b14:	df 92       	push	r13
     b16:	ef 92       	push	r14
     b18:	ff 92       	push	r15
     b1a:	0f 93       	push	r16
     b1c:	1f 93       	push	r17
     b1e:	cf 93       	push	r28
     b20:	df 93       	push	r29
     b22:	cd b7       	in	r28, 0x3d	; 61
     b24:	de b7       	in	r29, 0x3e	; 62
     b26:	29 97       	sbiw	r28, 0x09	; 9
     b28:	0f b6       	in	r0, 0x3f	; 63
     b2a:	f8 94       	cli
     b2c:	de bf       	out	0x3e, r29	; 62
     b2e:	0f be       	out	0x3f, r0	; 63
     b30:	cd bf       	out	0x3d, r28	; 61
	char str[9];
	unsigned char i;
	
	if (DisplayN<50)
     b32:	30 91 63 01 	lds	r19, 0x0163	; 0x800163 <DisplayN>
     b36:	32 33       	cpi	r19, 0x32	; 50
     b38:	08 f0       	brcs	.+2      	; 0xb3c <PrintParameters+0x28>
     b3a:	98 c0       	rjmp	.+304    	; 0xc6c <PrintParameters+0x158>
	{
		if (TimerDelay == 0)
     b3c:	80 91 6a 01 	lds	r24, 0x016A	; 0x80016a <TimerDelay>
     b40:	81 11       	cpse	r24, r1
     b42:	59 c0       	rjmp	.+178    	; 0xbf6 <PrintParameters+0xe2>
     b44:	0f 2e       	mov	r0, r31
     b46:	ff e6       	ldi	r31, 0x6F	; 111
     b48:	ef 2e       	mov	r14, r31
     b4a:	f1 e0       	ldi	r31, 0x01	; 1
     b4c:	ff 2e       	mov	r15, r31
     b4e:	f0 2d       	mov	r31, r0
     b50:	fe 01       	movw	r30, r28
     b52:	33 96       	adiw	r30, 0x03	; 3
     b54:	ae 01       	movw	r20, r28
     b56:	44 5f       	subi	r20, 0xF4	; 244
     b58:	5f 4f       	sbci	r21, 0xFF	; 255
		{		
			for (i = 0; i < 3; i++)
			{
				str[3*i] = Time[i]/10 + '0';
     b5a:	0d ec       	ldi	r16, 0xCD	; 205
				str[3*i+1] = Time[i]%10 + '0';
				str[3*i+2] = ':';
     b5c:	1a e3       	ldi	r17, 0x3A	; 58
	{
		if (TimerDelay == 0)
		{		
			for (i = 0; i < 3; i++)
			{
				str[3*i] = Time[i]/10 + '0';
     b5e:	d7 01       	movw	r26, r14
     b60:	9d 91       	ld	r25, X+
     b62:	7d 01       	movw	r14, r26
     b64:	bf 01       	movw	r22, r30
     b66:	62 50       	subi	r22, 0x02	; 2
     b68:	71 09       	sbc	r23, r1
     b6a:	90 9f       	mul	r25, r16
     b6c:	81 2d       	mov	r24, r1
     b6e:	11 24       	eor	r1, r1
     b70:	86 95       	lsr	r24
     b72:	86 95       	lsr	r24
     b74:	86 95       	lsr	r24
     b76:	20 e3       	ldi	r18, 0x30	; 48
     b78:	28 0f       	add	r18, r24
     b7a:	db 01       	movw	r26, r22
     b7c:	2c 93       	st	X, r18
     b7e:	6f 5f       	subi	r22, 0xFF	; 255
     b80:	7f 4f       	sbci	r23, 0xFF	; 255
				str[3*i+1] = Time[i]%10 + '0';
     b82:	88 0f       	add	r24, r24
     b84:	28 2f       	mov	r18, r24
     b86:	22 0f       	add	r18, r18
     b88:	22 0f       	add	r18, r18
     b8a:	82 0f       	add	r24, r18
     b8c:	98 1b       	sub	r25, r24
     b8e:	90 5d       	subi	r25, 0xD0	; 208
     b90:	db 01       	movw	r26, r22
     b92:	9c 93       	st	X, r25
				str[3*i+2] = ':';
     b94:	10 83       	st	Z, r17
     b96:	33 96       	adiw	r30, 0x03	; 3
	
	if (DisplayN<50)
	{
		if (TimerDelay == 0)
		{		
			for (i = 0; i < 3; i++)
     b98:	e4 17       	cp	r30, r20
     b9a:	f5 07       	cpc	r31, r21
     b9c:	01 f7       	brne	.-64     	; 0xb5e <PrintParameters+0x4a>
			{
				str[3*i] = Time[i]/10 + '0';
				str[3*i+1] = Time[i]%10 + '0';
				str[3*i+2] = ':';
			}
			str[8] = 0;
     b9e:	19 86       	std	Y+9, r1	; 0x09
		
			if ((DisplayN%10) && (RSeg))
     ba0:	8d ec       	ldi	r24, 0xCD	; 205
     ba2:	38 9f       	mul	r19, r24
     ba4:	81 2d       	mov	r24, r1
     ba6:	11 24       	eor	r1, r1
     ba8:	86 95       	lsr	r24
     baa:	86 95       	lsr	r24
     bac:	86 95       	lsr	r24
     bae:	88 0f       	add	r24, r24
     bb0:	98 2f       	mov	r25, r24
     bb2:	99 0f       	add	r25, r25
     bb4:	99 0f       	add	r25, r25
     bb6:	89 0f       	add	r24, r25
     bb8:	38 1b       	sub	r19, r24
     bba:	b9 f0       	breq	.+46     	; 0xbea <PrintParameters+0xd6>
     bbc:	90 91 62 01 	lds	r25, 0x0162	; 0x800162 <RSeg>
     bc0:	99 23       	and	r25, r25
     bc2:	99 f0       	breq	.+38     	; 0xbea <PrintParameters+0xd6>
			{
				str[9 - (DisplayN%10)*3] = ' ';
     bc4:	83 2f       	mov	r24, r19
     bc6:	90 e0       	ldi	r25, 0x00	; 0
     bc8:	9c 01       	movw	r18, r24
     bca:	22 0f       	add	r18, r18
     bcc:	33 1f       	adc	r19, r19
     bce:	82 0f       	add	r24, r18
     bd0:	93 1f       	adc	r25, r19
     bd2:	91 95       	neg	r25
     bd4:	81 95       	neg	r24
     bd6:	91 09       	sbc	r25, r1
     bd8:	fe 01       	movw	r30, r28
     bda:	e8 0f       	add	r30, r24
     bdc:	f9 1f       	adc	r31, r25
     bde:	20 e2       	ldi	r18, 0x20	; 32
     be0:	22 87       	std	Z+10, r18	; 0x0a
				str[10 - (DisplayN%10)*3] = ' ';
     be2:	fe 01       	movw	r30, r28
     be4:	e8 0f       	add	r30, r24
     be6:	f9 1f       	adc	r31, r25
     be8:	23 87       	std	Z+11, r18	; 0x0b
			}
			LCD5110_LargeNumPrints(str, 10, 3);		
     bea:	43 e0       	ldi	r20, 0x03	; 3
     bec:	6a e0       	ldi	r22, 0x0A	; 10
     bee:	ce 01       	movw	r24, r28
     bf0:	01 96       	adiw	r24, 0x01	; 1
     bf2:	62 dd       	rcall	.-1340   	; 0x6b8 <LCD5110_LargeNumPrints>
     bf4:	c2 c0       	rjmp	.+388    	; 0xd7a <PrintParameters+0x266>
    } else if (__radix < 2 || __radix > 36) {
	*__s = 0;
	return __s;
    } else {
	extern char *__itoa_ncheck (int, char *, unsigned char);
	return __itoa_ncheck (__val, __s, __radix);
     bf6:	4a e0       	ldi	r20, 0x0A	; 10
     bf8:	be 01       	movw	r22, r28
     bfa:	6e 5f       	subi	r22, 0xFE	; 254
     bfc:	7f 4f       	sbci	r23, 0xFF	; 255
     bfe:	90 e0       	ldi	r25, 0x00	; 0
     c00:	6e d4       	rcall	.+2268   	; 0x14de <__itoa_ncheck>
		}
		else
		{
			// Преобразовываем число в самозатирающуюся строку (которая сама затрет ненужные цифры при перехое от двухразрядного числа в одноразрядное, например).
			itoa(TimerDelay, &str[1], 10);
			str[0] = ' ';
     c02:	80 e2       	ldi	r24, 0x20	; 32
     c04:	89 83       	std	Y+1, r24	; 0x01
			i = 0;
			while ((i < 4) && (str[i] != 0 ))
     c06:	8a 81       	ldd	r24, Y+2	; 0x02
     c08:	88 23       	and	r24, r24
     c0a:	41 f0       	breq	.+16     	; 0xc1c <PrintParameters+0x108>
     c0c:	8b 81       	ldd	r24, Y+3	; 0x03
     c0e:	88 23       	and	r24, r24
     c10:	39 f0       	breq	.+14     	; 0xc20 <PrintParameters+0x10c>
     c12:	8c 81       	ldd	r24, Y+4	; 0x04
     c14:	81 11       	cpse	r24, r1
     c16:	06 c0       	rjmp	.+12     	; 0xc24 <PrintParameters+0x110>
				i++;
     c18:	83 e0       	ldi	r24, 0x03	; 3
     c1a:	05 c0       	rjmp	.+10     	; 0xc26 <PrintParameters+0x112>
     c1c:	81 e0       	ldi	r24, 0x01	; 1
     c1e:	03 c0       	rjmp	.+6      	; 0xc26 <PrintParameters+0x112>
     c20:	82 e0       	ldi	r24, 0x02	; 2
     c22:	01 c0       	rjmp	.+2      	; 0xc26 <PrintParameters+0x112>
     c24:	84 e0       	ldi	r24, 0x04	; 4
			
			str[i] = ' ';
     c26:	28 2f       	mov	r18, r24
     c28:	30 e0       	ldi	r19, 0x00	; 0
     c2a:	fe 01       	movw	r30, r28
     c2c:	e2 0f       	add	r30, r18
     c2e:	f3 1f       	adc	r31, r19
     c30:	90 e2       	ldi	r25, 0x20	; 32
     c32:	91 83       	std	Z+1, r25	; 0x01
			str[i+1] = 0;
     c34:	fe 01       	movw	r30, r28
     c36:	e2 0f       	add	r30, r18
     c38:	f3 1f       	adc	r31, r19
     c3a:	12 82       	std	Z+2, r1	; 0x02
			i++;
     c3c:	8f 5f       	subi	r24, 0xFF	; 255
			// И передаем ее на печать
			LCD5110_LargeNumPrints(str, (84-8*i)/2, 3);
     c3e:	90 e0       	ldi	r25, 0x00	; 0
     c40:	91 95       	neg	r25
     c42:	81 95       	neg	r24
     c44:	91 09       	sbc	r25, r1
     c46:	88 0f       	add	r24, r24
     c48:	99 1f       	adc	r25, r25
     c4a:	88 0f       	add	r24, r24
     c4c:	99 1f       	adc	r25, r25
     c4e:	88 0f       	add	r24, r24
     c50:	99 1f       	adc	r25, r25
     c52:	8c 5a       	subi	r24, 0xAC	; 172
     c54:	9f 4f       	sbci	r25, 0xFF	; 255
     c56:	bc 01       	movw	r22, r24
     c58:	12 f4       	brpl	.+4      	; 0xc5e <PrintParameters+0x14a>
     c5a:	6f 5f       	subi	r22, 0xFF	; 255
     c5c:	7f 4f       	sbci	r23, 0xFF	; 255
     c5e:	75 95       	asr	r23
     c60:	67 95       	ror	r22
     c62:	43 e0       	ldi	r20, 0x03	; 3
     c64:	ce 01       	movw	r24, r28
     c66:	01 96       	adiw	r24, 0x01	; 1
     c68:	27 dd       	rcall	.-1458   	; 0x6b8 <LCD5110_LargeNumPrints>
     c6a:	87 c0       	rjmp	.+270    	; 0xd7a <PrintParameters+0x266>
     c6c:	01 e0       	ldi	r16, 0x01	; 1
     c6e:	10 e0       	ldi	r17, 0x00	; 0
	}
	else
	{
		for (unsigned char NumPar = 0; NumPar < 2; NumPar++)
		{
			if ((DisplayN%10 != (NumPar+1))||(RSeg != 1))
     c70:	0f 2e       	mov	r0, r31
     c72:	fd ec       	ldi	r31, 0xCD	; 205
     c74:	ff 2e       	mov	r15, r31
     c76:	f0 2d       	mov	r31, r0
			{
				str[0] = (Settings[NumPar] / 100) + '0';
     c78:	0f 2e       	mov	r0, r31
     c7a:	f9 e2       	ldi	r31, 0x29	; 41
     c7c:	df 2e       	mov	r13, r31
     c7e:	f0 2d       	mov	r31, r0
				str[3] = 0;
					
				i = 0;
				while ((i < 2)&&(str[i] == '0'))
				{
					str[i] = ' ';
     c80:	68 94       	set
     c82:	ee 24       	eor	r14, r14
     c84:	e5 f8       	bld	r14, 5
	}
	else
	{
		for (unsigned char NumPar = 0; NumPar < 2; NumPar++)
		{
			if ((DisplayN%10 != (NumPar+1))||(RSeg != 1))
     c86:	80 91 63 01 	lds	r24, 0x0163	; 0x800163 <DisplayN>
     c8a:	8f 9d       	mul	r24, r15
     c8c:	91 2d       	mov	r25, r1
     c8e:	11 24       	eor	r1, r1
     c90:	96 95       	lsr	r25
     c92:	96 95       	lsr	r25
     c94:	96 95       	lsr	r25
     c96:	99 0f       	add	r25, r25
     c98:	29 2f       	mov	r18, r25
     c9a:	22 0f       	add	r18, r18
     c9c:	22 0f       	add	r18, r18
     c9e:	92 0f       	add	r25, r18
     ca0:	89 1b       	sub	r24, r25
     ca2:	90 e0       	ldi	r25, 0x00	; 0
     ca4:	80 17       	cp	r24, r16
     ca6:	91 07       	cpc	r25, r17
     ca8:	21 f4       	brne	.+8      	; 0xcb2 <PrintParameters+0x19e>
     caa:	80 91 62 01 	lds	r24, 0x0162	; 0x800162 <RSeg>
     cae:	81 30       	cpi	r24, 0x01	; 1
     cb0:	a9 f1       	breq	.+106    	; 0xd1c <PrintParameters+0x208>
     cb2:	f8 01       	movw	r30, r16
     cb4:	e5 59       	subi	r30, 0x95	; 149
     cb6:	fe 4f       	sbci	r31, 0xFE	; 254
			{
				str[0] = (Settings[NumPar] / 100) + '0';
     cb8:	90 81       	ld	r25, Z
     cba:	9d 9d       	mul	r25, r13
     cbc:	21 2d       	mov	r18, r1
     cbe:	11 24       	eor	r1, r1
     cc0:	22 95       	swap	r18
     cc2:	2f 70       	andi	r18, 0x0F	; 15
     cc4:	20 5d       	subi	r18, 0xD0	; 208
     cc6:	29 83       	std	Y+1, r18	; 0x01
				str[1] = ((Settings[NumPar] / 10) % 10)  + '0';
     cc8:	9f 9d       	mul	r25, r15
     cca:	81 2d       	mov	r24, r1
     ccc:	11 24       	eor	r1, r1
     cce:	86 95       	lsr	r24
     cd0:	86 95       	lsr	r24
     cd2:	86 95       	lsr	r24
     cd4:	8f 9d       	mul	r24, r15
     cd6:	31 2d       	mov	r19, r1
     cd8:	11 24       	eor	r1, r1
     cda:	36 95       	lsr	r19
     cdc:	36 95       	lsr	r19
     cde:	36 95       	lsr	r19
     ce0:	33 0f       	add	r19, r19
     ce2:	43 2f       	mov	r20, r19
     ce4:	44 0f       	add	r20, r20
     ce6:	44 0f       	add	r20, r20
     ce8:	34 0f       	add	r19, r20
     cea:	b8 2f       	mov	r27, r24
     cec:	b3 1b       	sub	r27, r19
     cee:	3b 2f       	mov	r19, r27
     cf0:	30 5d       	subi	r19, 0xD0	; 208
     cf2:	3a 83       	std	Y+2, r19	; 0x02
				str[2] = (Settings[NumPar] % 10)  + '0';
     cf4:	88 0f       	add	r24, r24
     cf6:	38 2f       	mov	r19, r24
     cf8:	33 0f       	add	r19, r19
     cfa:	33 0f       	add	r19, r19
     cfc:	83 0f       	add	r24, r19
     cfe:	98 1b       	sub	r25, r24
     d00:	90 5d       	subi	r25, 0xD0	; 208
     d02:	9b 83       	std	Y+3, r25	; 0x03
				str[3] = 0;
     d04:	1c 82       	std	Y+4, r1	; 0x04
					
				i = 0;
				while ((i < 2)&&(str[i] == '0'))
     d06:	20 33       	cpi	r18, 0x30	; 48
     d08:	99 f1       	breq	.+102    	; 0xd70 <PrintParameters+0x25c>
     d0a:	01 c0       	rjmp	.+2      	; 0xd0e <PrintParameters+0x1fa>
				{
					str[i] = ' ';
     d0c:	ea 82       	std	Y+2, r14	; 0x02
     d0e:	42 e0       	ldi	r20, 0x02	; 2
     d10:	40 0f       	add	r20, r16
					i++;
				}
				LCD5110_Prints(str, 9*6, 3 + NumPar);
     d12:	66 e3       	ldi	r22, 0x36	; 54
     d14:	ce 01       	movw	r24, r28
     d16:	01 96       	adiw	r24, 0x01	; 1
     d18:	17 dc       	rcall	.-2002   	; 0x548 <LCD5110_Prints>
     d1a:	06 c0       	rjmp	.+12     	; 0xd28 <PrintParameters+0x214>
     d1c:	42 e0       	ldi	r20, 0x02	; 2
     d1e:	40 0f       	add	r20, r16
			}
			else
			{
				LCD5110_Prints("   ", 9*6, 3 + NumPar);
     d20:	66 e3       	ldi	r22, 0x36	; 54
     d22:	8e e6       	ldi	r24, 0x6E	; 110
     d24:	90 e0       	ldi	r25, 0x00	; 0
     d26:	10 dc       	rcall	.-2016   	; 0x548 <LCD5110_Prints>
     d28:	0f 5f       	subi	r16, 0xFF	; 255
     d2a:	1f 4f       	sbci	r17, 0xFF	; 255
			LCD5110_LargeNumPrints(str, (84-8*i)/2, 3);
		}
	}
	else
	{
		for (unsigned char NumPar = 0; NumPar < 2; NumPar++)
     d2c:	03 30       	cpi	r16, 0x03	; 3
     d2e:	11 05       	cpc	r17, r1
     d30:	09 f0       	breq	.+2      	; 0xd34 <PrintParameters+0x220>
     d32:	a9 cf       	rjmp	.-174    	; 0xc86 <PrintParameters+0x172>
			}
			
		}			
		
		// Вывод параметров звука	
		if ((DisplayN != 53)||(RSeg != 1))
     d34:	80 91 63 01 	lds	r24, 0x0163	; 0x800163 <DisplayN>
     d38:	85 33       	cpi	r24, 0x35	; 53
     d3a:	21 f4       	brne	.+8      	; 0xd44 <PrintParameters+0x230>
     d3c:	80 91 62 01 	lds	r24, 0x0162	; 0x800162 <RSeg>
     d40:	81 30       	cpi	r24, 0x01	; 1
     d42:	81 f0       	breq	.+32     	; 0xd64 <PrintParameters+0x250>
		{
			if (Settings[2])
     d44:	80 91 6e 01 	lds	r24, 0x016E	; 0x80016e <Settings+0x2>
     d48:	88 23       	and	r24, r24
     d4a:	31 f0       	breq	.+12     	; 0xd58 <PrintParameters+0x244>
				LCD5110_Prints(" Вкл.", 9*6, 5);
     d4c:	45 e0       	ldi	r20, 0x05	; 5
     d4e:	66 e3       	ldi	r22, 0x36	; 54
     d50:	80 e6       	ldi	r24, 0x60	; 96
     d52:	90 e0       	ldi	r25, 0x00	; 0
     d54:	f9 db       	rcall	.-2062   	; 0x548 <LCD5110_Prints>
     d56:	11 c0       	rjmp	.+34     	; 0xd7a <PrintParameters+0x266>
			else
				LCD5110_Prints("Выкл.", 9*6, 5);
     d58:	45 e0       	ldi	r20, 0x05	; 5
     d5a:	66 e3       	ldi	r22, 0x36	; 54
     d5c:	86 e6       	ldi	r24, 0x66	; 102
     d5e:	90 e0       	ldi	r25, 0x00	; 0
     d60:	f3 db       	rcall	.-2074   	; 0x548 <LCD5110_Prints>
     d62:	0b c0       	rjmp	.+22     	; 0xd7a <PrintParameters+0x266>
		}
		else
		{
			LCD5110_Prints("     ", 9*6, 5);
     d64:	45 e0       	ldi	r20, 0x05	; 5
     d66:	66 e3       	ldi	r22, 0x36	; 54
     d68:	8c e6       	ldi	r24, 0x6C	; 108
     d6a:	90 e0       	ldi	r25, 0x00	; 0
     d6c:	ed db       	rcall	.-2086   	; 0x548 <LCD5110_Prints>
     d6e:	05 c0       	rjmp	.+10     	; 0xd7a <PrintParameters+0x266>
				str[3] = 0;
					
				i = 0;
				while ((i < 2)&&(str[i] == '0'))
				{
					str[i] = ' ';
     d70:	e9 82       	std	Y+1, r14	; 0x01
				str[1] = ((Settings[NumPar] / 10) % 10)  + '0';
				str[2] = (Settings[NumPar] % 10)  + '0';
				str[3] = 0;
					
				i = 0;
				while ((i < 2)&&(str[i] == '0'))
     d72:	8a 81       	ldd	r24, Y+2	; 0x02
     d74:	80 33       	cpi	r24, 0x30	; 48
     d76:	51 f2       	breq	.-108    	; 0xd0c <PrintParameters+0x1f8>
     d78:	ca cf       	rjmp	.-108    	; 0xd0e <PrintParameters+0x1fa>
		else
		{
			LCD5110_Prints("     ", 9*6, 5);
		}
	}
}
     d7a:	29 96       	adiw	r28, 0x09	; 9
     d7c:	0f b6       	in	r0, 0x3f	; 63
     d7e:	f8 94       	cli
     d80:	de bf       	out	0x3e, r29	; 62
     d82:	0f be       	out	0x3f, r0	; 63
     d84:	cd bf       	out	0x3d, r28	; 61
     d86:	df 91       	pop	r29
     d88:	cf 91       	pop	r28
     d8a:	1f 91       	pop	r17
     d8c:	0f 91       	pop	r16
     d8e:	ff 90       	pop	r15
     d90:	ef 90       	pop	r14
     d92:	df 90       	pop	r13
     d94:	08 95       	ret

00000d96 <DisplayUpdate>:
}



void DisplayUpdate(void)
{
     d96:	cf 93       	push	r28
     d98:	df 93       	push	r29
	LCD5110_SetXY(0, 3);											// Очищаем поле параметров (где пишется время и настройки)
     d9a:	63 e0       	ldi	r22, 0x03	; 3
     d9c:	80 e0       	ldi	r24, 0x00	; 0
     d9e:	a1 db       	rcall	.-2238   	; 0x4e2 <LCD5110_SetXY>
     da0:	cc ef       	ldi	r28, 0xFC	; 252
     da2:	d0 e0       	ldi	r29, 0x00	; 0
	for (unsigned int i = 0; i < 84*3; i++)
		LCD5110_SendByte(0, 1);
     da4:	61 e0       	ldi	r22, 0x01	; 1
     da6:	80 e0       	ldi	r24, 0x00	; 0
     da8:	4d db       	rcall	.-2406   	; 0x444 <LCD5110_SendByte>
     daa:	21 97       	sbiw	r28, 0x01	; 1


void DisplayUpdate(void)
{
	LCD5110_SetXY(0, 3);											// Очищаем поле параметров (где пишется время и настройки)
	for (unsigned int i = 0; i < 84*3; i++)
     dac:	d9 f7       	brne	.-10     	; 0xda4 <DisplayUpdate+0xe>
		LCD5110_SendByte(0, 1);
		
	switch (TimerState)												// Обновляем шапку
     dae:	80 91 64 01 	lds	r24, 0x0164	; 0x800164 <TimerState>
     db2:	81 30       	cpi	r24, 0x01	; 1
     db4:	09 f4       	brne	.+2      	; 0xdb8 <DisplayUpdate+0x22>
     db6:	43 c0       	rjmp	.+134    	; 0xe3e <DisplayUpdate+0xa8>
     db8:	20 f0       	brcs	.+8      	; 0xdc2 <DisplayUpdate+0x2c>
     dba:	82 30       	cpi	r24, 0x02	; 2
     dbc:	09 f4       	brne	.+2      	; 0xdc0 <DisplayUpdate+0x2a>
     dbe:	4b c0       	rjmp	.+150    	; 0xe56 <DisplayUpdate+0xc0>
     dc0:	4d c0       	rjmp	.+154    	; 0xe5c <DisplayUpdate+0xc6>
	{
		case TS_Wait:
		{	
			switch (DisplayN/10)
     dc2:	80 91 63 01 	lds	r24, 0x0163	; 0x800163 <DisplayN>
     dc6:	9d ec       	ldi	r25, 0xCD	; 205
     dc8:	89 9f       	mul	r24, r25
     dca:	81 2d       	mov	r24, r1
     dcc:	11 24       	eor	r1, r1
     dce:	86 95       	lsr	r24
     dd0:	86 95       	lsr	r24
     dd2:	86 95       	lsr	r24
     dd4:	82 30       	cpi	r24, 0x02	; 2
     dd6:	a1 f0       	breq	.+40     	; 0xe00 <DisplayUpdate+0x6a>
     dd8:	28 f4       	brcc	.+10     	; 0xde4 <DisplayUpdate+0x4e>
     dda:	88 23       	and	r24, r24
     ddc:	49 f0       	breq	.+18     	; 0xdf0 <DisplayUpdate+0x5a>
     dde:	81 30       	cpi	r24, 0x01	; 1
     de0:	59 f0       	breq	.+22     	; 0xdf8 <DisplayUpdate+0x62>
     de2:	3c c0       	rjmp	.+120    	; 0xe5c <DisplayUpdate+0xc6>
     de4:	84 30       	cpi	r24, 0x04	; 4
     de6:	a1 f0       	breq	.+40     	; 0xe10 <DisplayUpdate+0x7a>
     de8:	78 f0       	brcs	.+30     	; 0xe08 <DisplayUpdate+0x72>
     dea:	85 30       	cpi	r24, 0x05	; 5
     dec:	a9 f0       	breq	.+42     	; 0xe18 <DisplayUpdate+0x82>
     dee:	36 c0       	rjmp	.+108    	; 0xe5c <DisplayUpdate+0xc6>
			{
				case 0:
				{
					HeaderPrints("<Режим #1>");
     df0:	82 e7       	ldi	r24, 0x72	; 114
     df2:	90 e0       	ldi	r25, 0x00	; 0
     df4:	ba db       	rcall	.-2188   	; 0x56a <HeaderPrints>
					break;
     df6:	32 c0       	rjmp	.+100    	; 0xe5c <DisplayUpdate+0xc6>
				}
				case 1:
				{
					HeaderPrints("<Режим #2>");
     df8:	8d e7       	ldi	r24, 0x7D	; 125
     dfa:	90 e0       	ldi	r25, 0x00	; 0
     dfc:	b6 db       	rcall	.-2196   	; 0x56a <HeaderPrints>
					break;
     dfe:	2e c0       	rjmp	.+92     	; 0xe5c <DisplayUpdate+0xc6>
				}
				case 2:
				{
					HeaderPrints("<Режим #3>");
     e00:	88 e8       	ldi	r24, 0x88	; 136
     e02:	90 e0       	ldi	r25, 0x00	; 0
     e04:	b2 db       	rcall	.-2204   	; 0x56a <HeaderPrints>
					break;
     e06:	2a c0       	rjmp	.+84     	; 0xe5c <DisplayUpdate+0xc6>
				}
				case 3:
				{
					HeaderPrints("<Режим #4>");
     e08:	83 e9       	ldi	r24, 0x93	; 147
     e0a:	90 e0       	ldi	r25, 0x00	; 0
     e0c:	ae db       	rcall	.-2212   	; 0x56a <HeaderPrints>
					break;
     e0e:	26 c0       	rjmp	.+76     	; 0xe5c <DisplayUpdate+0xc6>
				}
				case 4:
				{
					HeaderPrints("<Режим #5>");
     e10:	8e e9       	ldi	r24, 0x9E	; 158
     e12:	90 e0       	ldi	r25, 0x00	; 0
     e14:	aa db       	rcall	.-2220   	; 0x56a <HeaderPrints>
					break;
     e16:	22 c0       	rjmp	.+68     	; 0xe5c <DisplayUpdate+0xc6>
				}
				case 5:
				{
					HeaderPrints("<Настройки>");
     e18:	89 ea       	ldi	r24, 0xA9	; 169
     e1a:	90 e0       	ldi	r25, 0x00	; 0
     e1c:	a6 db       	rcall	.-2228   	; 0x56a <HeaderPrints>
					LCD5110_Prints("Задержка     с", 0, 3);
     e1e:	43 e0       	ldi	r20, 0x03	; 3
     e20:	60 e0       	ldi	r22, 0x00	; 0
     e22:	85 eb       	ldi	r24, 0xB5	; 181
     e24:	90 e0       	ldi	r25, 0x00	; 0
     e26:	90 db       	rcall	.-2272   	; 0x548 <LCD5110_Prints>
					LCD5110_Prints("Яркость      %", 0, 4);
     e28:	44 e0       	ldi	r20, 0x04	; 4
     e2a:	60 e0       	ldi	r22, 0x00	; 0
     e2c:	84 ec       	ldi	r24, 0xC4	; 196
     e2e:	90 e0       	ldi	r25, 0x00	; 0
     e30:	8b db       	rcall	.-2282   	; 0x548 <LCD5110_Prints>
					LCD5110_Prints("Звук", 0, 5);
     e32:	45 e0       	ldi	r20, 0x05	; 5
     e34:	60 e0       	ldi	r22, 0x00	; 0
     e36:	83 ed       	ldi	r24, 0xD3	; 211
     e38:	90 e0       	ldi	r25, 0x00	; 0
     e3a:	86 db       	rcall	.-2292   	; 0x548 <LCD5110_Prints>
					break;
     e3c:	0f c0       	rjmp	.+30     	; 0xe5c <DisplayUpdate+0xc6>
			}
			break;
		}
		case TS_Work:
		{
			if (TimerDelay)
     e3e:	80 91 6a 01 	lds	r24, 0x016A	; 0x80016a <TimerDelay>
     e42:	88 23       	and	r24, r24
     e44:	21 f0       	breq	.+8      	; 0xe4e <DisplayUpdate+0xb8>
				HeaderPrints("Задержка");
     e46:	88 ed       	ldi	r24, 0xD8	; 216
     e48:	90 e0       	ldi	r25, 0x00	; 0
     e4a:	8f db       	rcall	.-2274   	; 0x56a <HeaderPrints>
     e4c:	07 c0       	rjmp	.+14     	; 0xe5c <DisplayUpdate+0xc6>
			else
				HeaderPrints("Идет отсчет");
     e4e:	81 ee       	ldi	r24, 0xE1	; 225
     e50:	90 e0       	ldi	r25, 0x00	; 0
     e52:	8b db       	rcall	.-2282   	; 0x56a <HeaderPrints>
     e54:	03 c0       	rjmp	.+6      	; 0xe5c <DisplayUpdate+0xc6>
			break;
		}
		case TS_Pause:
		{
			HeaderPrints("Пауза");
     e56:	8d ee       	ldi	r24, 0xED	; 237
     e58:	90 e0       	ldi	r25, 0x00	; 0
     e5a:	87 db       	rcall	.-2290   	; 0x56a <HeaderPrints>
			break;
		}
	}
	
	PrintParameters();
     e5c:	5b de       	rcall	.-842    	; 0xb14 <PrintParameters>
}
     e5e:	df 91       	pop	r29
     e60:	cf 91       	pop	r28
     e62:	08 95       	ret

00000e64 <MirrorDigit>:
}


void MirrorDigit(void)
{
	RSeg ^= (1<<0);
     e64:	90 91 62 01 	lds	r25, 0x0162	; 0x800162 <RSeg>
     e68:	81 e0       	ldi	r24, 0x01	; 1
     e6a:	89 27       	eor	r24, r25
     e6c:	80 93 62 01 	sts	0x0162, r24	; 0x800162 <RSeg>
	SendTask(PrintParameters);
     e70:	8a e8       	ldi	r24, 0x8A	; 138
     e72:	95 e0       	ldi	r25, 0x05	; 5
     e74:	e6 dc       	rcall	.-1588   	; 0x842 <SendTask>
	SendTimerTask(MirrorDigit, 500);
     e76:	64 ef       	ldi	r22, 0xF4	; 244
     e78:	71 e0       	ldi	r23, 0x01	; 1
     e7a:	82 e3       	ldi	r24, 0x32	; 50
     e7c:	97 e0       	ldi	r25, 0x07	; 7
     e7e:	32 dd       	rcall	.-1436   	; 0x8e4 <SendTimerTask>
     e80:	08 95       	ret

00000e82 <main>:

void BuzzerOFF(void);

int main(void)
{
	TimerDDR |= (1<<TimerNPin);
     e82:	b8 9a       	sbi	0x17, 0	; 23
	TimerPort &= ~(1<<TimerNPin);
     e84:	c0 98       	cbi	0x18, 0	; 24
	
	BuzzerDDR |= (1<<BuzzerNPin);
     e86:	a2 9a       	sbi	0x14, 2	; 20
	BuzzerPort &= ~(1<<BuzzerNPin);
     e88:	aa 98       	cbi	0x15, 2	; 21
	
	
	DDRB |= (1<<3);
     e8a:	bb 9a       	sbi	0x17, 3	; 23
	PORTB &= ~(1<<3);
     e8c:	c3 98       	cbi	0x18, 3	; 24
	TCCR2 = 0b01101001;								// Настраиваем таймер 2 для работы в режиме FastPWM
     e8e:	89 e6       	ldi	r24, 0x69	; 105
     e90:	85 bd       	out	0x25, r24	; 37
	TIMSK &= ~((1<<OCIE2)|(1<<TOIE2));				// Вырубаем все его прерывания
     e92:	89 b7       	in	r24, 0x39	; 57
     e94:	8f 73       	andi	r24, 0x3F	; 63
     e96:	89 bf       	out	0x39, r24	; 57
	
	OCR2 = 100; 
     e98:	84 e6       	ldi	r24, 0x64	; 100
     e9a:	83 bd       	out	0x23, r24	; 35
	
	RTOS_Init();
     e9c:	aa dc       	rcall	.-1708   	; 0x7f2 <RTOS_Init>
	RTOS_Run();
     e9e:	c3 dc       	rcall	.-1658   	; 0x826 <RTOS_Run>
     ea0:	00 e0       	ldi	r16, 0x00	; 0
     ea2:	10 e0       	ldi	r17, 0x00	; 0
     ea4:	cc e6       	ldi	r28, 0x6C	; 108
     ea6:	d1 e0       	ldi	r29, 0x01	; 1
     ea8:	0f 2e       	mov	r0, r31
     eaa:	ff e6       	ldi	r31, 0x6F	; 111
     eac:	ef 2e       	mov	r14, r31
     eae:	f1 e0       	ldi	r31, 0x01	; 1
     eb0:	ff 2e       	mov	r15, r31
     eb2:	f0 2d       	mov	r31, r0

inline void ReadSettings(void)
{
	for (unsigned char i=0; i<3; i++)
	{
		Settings[i] = eeprom_read_byte(&EE_TimerSettings[i]);
     eb4:	c8 01       	movw	r24, r16
     eb6:	46 d3       	rcall	.+1676   	; 0x1544 <eeprom_read_byte>
     eb8:	89 93       	st	Y+, r24
     eba:	0f 5f       	subi	r16, 0xFF	; 255
     ebc:	1f 4f       	sbci	r17, 0xFF	; 255
	}
}

inline void ReadSettings(void)
{
	for (unsigned char i=0; i<3; i++)
     ebe:	ce 15       	cp	r28, r14
     ec0:	df 05       	cpc	r29, r15
     ec2:	c1 f7       	brne	.-16     	; 0xeb4 <main+0x32>
/*Считывание и запись параметров таймера*/
inline void ReadTime(void)
{
	for (unsigned char i=0; i<3; i++)
	{
		Time[i] = eeprom_read_byte(&EE_TimeModes[DisplayN/10][i]);
     ec4:	80 91 63 01 	lds	r24, 0x0163	; 0x800163 <DisplayN>
     ec8:	9d ec       	ldi	r25, 0xCD	; 205
     eca:	89 9f       	mul	r24, r25
     ecc:	81 2d       	mov	r24, r1
     ece:	11 24       	eor	r1, r1
     ed0:	86 95       	lsr	r24
     ed2:	86 95       	lsr	r24
     ed4:	86 95       	lsr	r24
     ed6:	90 e0       	ldi	r25, 0x00	; 0
     ed8:	ec 01       	movw	r28, r24
     eda:	cc 0f       	add	r28, r28
     edc:	dd 1f       	adc	r29, r29
     ede:	8c 0f       	add	r24, r28
     ee0:	9d 1f       	adc	r25, r29
     ee2:	ec 01       	movw	r28, r24
     ee4:	cd 5f       	subi	r28, 0xFD	; 253
     ee6:	df 4f       	sbci	r29, 0xFF	; 255
     ee8:	0f e6       	ldi	r16, 0x6F	; 111
     eea:	11 e0       	ldi	r17, 0x01	; 1
     eec:	0f 2e       	mov	r0, r31
     eee:	f2 e7       	ldi	r31, 0x72	; 114
     ef0:	ef 2e       	mov	r14, r31
     ef2:	f1 e0       	ldi	r31, 0x01	; 1
     ef4:	ff 2e       	mov	r15, r31
     ef6:	f0 2d       	mov	r31, r0
     ef8:	ce 01       	movw	r24, r28
     efa:	24 d3       	rcall	.+1608   	; 0x1544 <eeprom_read_byte>
     efc:	f8 01       	movw	r30, r16
     efe:	81 93       	st	Z+, r24
     f00:	8f 01       	movw	r16, r30
     f02:	21 96       	adiw	r28, 0x01	; 1
}

/*Считывание и запись параметров таймера*/
inline void ReadTime(void)
{
	for (unsigned char i=0; i<3; i++)
     f04:	ee 15       	cp	r30, r14
     f06:	ff 05       	cpc	r31, r15
     f08:	b9 f7       	brne	.-18     	; 0xef8 <main+0x76>
	RTOS_Run();
	
	ReadSettings();
	ReadTime();
	
	OCR2 = pgm_read_byte(&PerToFill[Settings[1]/10]);
     f0a:	80 91 6d 01 	lds	r24, 0x016D	; 0x80016d <Settings+0x1>
     f0e:	ed ec       	ldi	r30, 0xCD	; 205
     f10:	8e 9f       	mul	r24, r30
     f12:	e1 2d       	mov	r30, r1
     f14:	11 24       	eor	r1, r1
     f16:	e6 95       	lsr	r30
     f18:	e6 95       	lsr	r30
     f1a:	e6 95       	lsr	r30
     f1c:	f0 e0       	ldi	r31, 0x00	; 0
     f1e:	ef 5f       	subi	r30, 0xFF	; 255
     f20:	fb 4f       	sbci	r31, 0xFB	; 251
     f22:	e4 91       	lpm	r30, Z
     f24:	e3 bd       	out	0x23, r30	; 35
	
	ENC_Init();
     f26:	54 dc       	rcall	.-1880   	; 0x7d0 <ENC_Init>
	
	LCD5110_Init();
     f28:	b4 da       	rcall	.-2712   	; 0x492 <LCD5110_Init>
	LCD5110_Clear();
     f2a:	a1 da       	rcall	.-2750   	; 0x46e <LCD5110_Clear>
	DisplayUpdate();
     f2c:	34 df       	rcall	.-408    	; 0xd96 <DisplayUpdate>
    while (1)
    {
		TaskManager();
     f2e:	61 dd       	rcall	.-1342   	; 0x9f2 <TaskManager>
	}
     f30:	fe cf       	rjmp	.-4      	; 0xf2e <main+0xac>

00000f32 <ENC_Inc>:

//***************************************************************************
// Энкодер вращается по часовой стрелке
//***************************************************************************
void ENC_Inc(void)
{
     f32:	ef 92       	push	r14
     f34:	ff 92       	push	r15
     f36:	0f 93       	push	r16
     f38:	1f 93       	push	r17
     f3a:	cf 93       	push	r28
     f3c:	df 93       	push	r29
//Здесь может быть ваш код ;)
	if (TimerState == TS_Wait)
     f3e:	80 91 64 01 	lds	r24, 0x0164	; 0x800164 <TimerState>
     f42:	81 11       	cpse	r24, r1
     f44:	93 c0       	rjmp	.+294    	; 0x106c <ENC_Inc+0x13a>
	{
		if (DisplayN%10 == 0)
     f46:	80 91 63 01 	lds	r24, 0x0163	; 0x800163 <DisplayN>
     f4a:	cd ec       	ldi	r28, 0xCD	; 205
     f4c:	8c 9f       	mul	r24, r28
     f4e:	c1 2d       	mov	r28, r1
     f50:	11 24       	eor	r1, r1
     f52:	c6 95       	lsr	r28
     f54:	c6 95       	lsr	r28
     f56:	c6 95       	lsr	r28
     f58:	cc 0f       	add	r28, r28
     f5a:	9c 2f       	mov	r25, r28
     f5c:	99 0f       	add	r25, r25
     f5e:	99 0f       	add	r25, r25
     f60:	c9 0f       	add	r28, r25
     f62:	98 2f       	mov	r25, r24
     f64:	9c 1b       	sub	r25, r28
     f66:	c9 2f       	mov	r28, r25
     f68:	79 f5       	brne	.+94     	; 0xfc8 <ENC_Inc+0x96>
		{
			if (DisplayN == 50)
     f6a:	82 33       	cpi	r24, 0x32	; 50
     f6c:	19 f4       	brne	.+6      	; 0xf74 <ENC_Inc+0x42>
				DisplayN = 0;	
     f6e:	10 92 63 01 	sts	0x0163, r1	; 0x800163 <DisplayN>
     f72:	06 c0       	rjmp	.+12     	; 0xf80 <ENC_Inc+0x4e>
			else
				DisplayN += 10;
     f74:	ca e0       	ldi	r28, 0x0A	; 10
     f76:	c8 0f       	add	r28, r24
     f78:	c0 93 63 01 	sts	0x0163, r28	; 0x800163 <DisplayN>
			if (DisplayN != 50)
     f7c:	c2 33       	cpi	r28, 0x32	; 50
     f7e:	01 f1       	breq	.+64     	; 0xfc0 <ENC_Inc+0x8e>
/*Считывание и запись параметров таймера*/
inline void ReadTime(void)
{
	for (unsigned char i=0; i<3; i++)
	{
		Time[i] = eeprom_read_byte(&EE_TimeModes[DisplayN/10][i]);
     f80:	8d ec       	ldi	r24, 0xCD	; 205
     f82:	c8 9f       	mul	r28, r24
     f84:	c1 2d       	mov	r28, r1
     f86:	11 24       	eor	r1, r1
     f88:	c6 95       	lsr	r28
     f8a:	c6 95       	lsr	r28
     f8c:	c6 95       	lsr	r28
     f8e:	d0 e0       	ldi	r29, 0x00	; 0
     f90:	ce 01       	movw	r24, r28
     f92:	88 0f       	add	r24, r24
     f94:	99 1f       	adc	r25, r25
     f96:	c8 0f       	add	r28, r24
     f98:	d9 1f       	adc	r29, r25
     f9a:	cd 5f       	subi	r28, 0xFD	; 253
     f9c:	df 4f       	sbci	r29, 0xFF	; 255
     f9e:	0f e6       	ldi	r16, 0x6F	; 111
     fa0:	11 e0       	ldi	r17, 0x01	; 1
     fa2:	0f 2e       	mov	r0, r31
     fa4:	f2 e7       	ldi	r31, 0x72	; 114
     fa6:	ef 2e       	mov	r14, r31
     fa8:	f1 e0       	ldi	r31, 0x01	; 1
     faa:	ff 2e       	mov	r15, r31
     fac:	f0 2d       	mov	r31, r0
     fae:	ce 01       	movw	r24, r28
     fb0:	c9 d2       	rcall	.+1426   	; 0x1544 <eeprom_read_byte>
     fb2:	f8 01       	movw	r30, r16
     fb4:	81 93       	st	Z+, r24
     fb6:	8f 01       	movw	r16, r30
     fb8:	21 96       	adiw	r28, 0x01	; 1
}

/*Считывание и запись параметров таймера*/
inline void ReadTime(void)
{
	for (unsigned char i=0; i<3; i++)
     fba:	ee 15       	cp	r30, r14
     fbc:	ff 05       	cpc	r31, r15
     fbe:	b9 f7       	brne	.-18     	; 0xfae <ENC_Inc+0x7c>
				DisplayN += 10;
			if (DisplayN != 50)
			{
				ReadTime();
			}
			SendTask(DisplayUpdate);
     fc0:	8b ec       	ldi	r24, 0xCB	; 203
     fc2:	96 e0       	ldi	r25, 0x06	; 6
     fc4:	3e dc       	rcall	.-1924   	; 0x842 <SendTask>
     fc6:	52 c0       	rjmp	.+164    	; 0x106c <ENC_Inc+0x13a>
		}
		else
		{
			unsigned char i = DisplayN%10 - 1;
		
			if (DisplayN < 50)
     fc8:	82 33       	cpi	r24, 0x32	; 50
     fca:	d0 f4       	brcc	.+52     	; 0x1000 <ENC_Inc+0xce>
			{
				i = 2-i;
     fcc:	93 e0       	ldi	r25, 0x03	; 3
     fce:	9c 1b       	sub	r25, r28
				Time[i]++;
     fd0:	29 2f       	mov	r18, r25
     fd2:	30 e0       	ldi	r19, 0x00	; 0
     fd4:	f9 01       	movw	r30, r18
     fd6:	e1 59       	subi	r30, 0x91	; 145
     fd8:	fe 4f       	sbci	r31, 0xFE	; 254
     fda:	80 81       	ld	r24, Z
     fdc:	8f 5f       	subi	r24, 0xFF	; 255
     fde:	80 83       	st	Z, r24
				if (i != 0) 
     fe0:	99 23       	and	r25, r25
     fe2:	39 f0       	breq	.+14     	; 0xff2 <ENC_Inc+0xc0>
				{
					if (Time[i] == 60)
     fe4:	8c 33       	cpi	r24, 0x3C	; 60
     fe6:	c1 f5       	brne	.+112    	; 0x1058 <ENC_Inc+0x126>
						Time[i] = 0;
     fe8:	f9 01       	movw	r30, r18
     fea:	e1 59       	subi	r30, 0x91	; 145
     fec:	fe 4f       	sbci	r31, 0xFE	; 254
     fee:	10 82       	st	Z, r1
     ff0:	33 c0       	rjmp	.+102    	; 0x1058 <ENC_Inc+0x126>
				}
				else
				{
					if (Time[i] == 100)
     ff2:	84 36       	cpi	r24, 0x64	; 100
     ff4:	89 f5       	brne	.+98     	; 0x1058 <ENC_Inc+0x126>
						Time[i] = 0;
     ff6:	f9 01       	movw	r30, r18
     ff8:	e1 59       	subi	r30, 0x91	; 145
     ffa:	fe 4f       	sbci	r31, 0xFE	; 254
     ffc:	10 82       	st	Z, r1
     ffe:	2c c0       	rjmp	.+88     	; 0x1058 <ENC_Inc+0x126>
			}
			SendTask(DisplayUpdate);
		}
		else
		{
			unsigned char i = DisplayN%10 - 1;
    1000:	c1 50       	subi	r28, 0x01	; 1
						Time[i] = 0;
				}
			} 
			else
			{
				switch (i)
    1002:	c1 30       	cpi	r28, 0x01	; 1
    1004:	51 f0       	breq	.+20     	; 0x101a <ENC_Inc+0xe8>
    1006:	18 f0       	brcs	.+6      	; 0x100e <ENC_Inc+0xdc>
    1008:	c2 30       	cpi	r28, 0x02	; 2
    100a:	01 f1       	breq	.+64     	; 0x104c <ENC_Inc+0x11a>
    100c:	25 c0       	rjmp	.+74     	; 0x1058 <ENC_Inc+0x126>
				{
					case 0:
					{
						Settings[0]++;
    100e:	ec e6       	ldi	r30, 0x6C	; 108
    1010:	f1 e0       	ldi	r31, 0x01	; 1
    1012:	80 81       	ld	r24, Z
    1014:	8f 5f       	subi	r24, 0xFF	; 255
    1016:	80 83       	st	Z, r24
						break;
    1018:	1f c0       	rjmp	.+62     	; 0x1058 <ENC_Inc+0x126>
					}
					case 1:
					{
						Settings[1] += 10;
    101a:	80 91 6d 01 	lds	r24, 0x016D	; 0x80016d <Settings+0x1>
    101e:	86 5f       	subi	r24, 0xF6	; 246
						if (Settings[1] > 100)
    1020:	85 36       	cpi	r24, 0x65	; 101
    1022:	18 f4       	brcc	.+6      	; 0x102a <ENC_Inc+0xf8>
						Settings[0]++;
						break;
					}
					case 1:
					{
						Settings[1] += 10;
    1024:	80 93 6d 01 	sts	0x016D, r24	; 0x80016d <Settings+0x1>
    1028:	02 c0       	rjmp	.+4      	; 0x102e <ENC_Inc+0xfc>
						if (Settings[1] > 100)
							Settings[1] = 0;
    102a:	10 92 6d 01 	sts	0x016D, r1	; 0x80016d <Settings+0x1>
						OCR2 = pgm_read_byte(&PerToFill[Settings[1]/10]);
    102e:	80 91 6d 01 	lds	r24, 0x016D	; 0x80016d <Settings+0x1>
    1032:	ed ec       	ldi	r30, 0xCD	; 205
    1034:	8e 9f       	mul	r24, r30
    1036:	e1 2d       	mov	r30, r1
    1038:	11 24       	eor	r1, r1
    103a:	e6 95       	lsr	r30
    103c:	e6 95       	lsr	r30
    103e:	e6 95       	lsr	r30
    1040:	f0 e0       	ldi	r31, 0x00	; 0
    1042:	ef 5f       	subi	r30, 0xFF	; 255
    1044:	fb 4f       	sbci	r31, 0xFB	; 251
    1046:	e4 91       	lpm	r30, Z
    1048:	e3 bd       	out	0x23, r30	; 35
						break;
    104a:	06 c0       	rjmp	.+12     	; 0x1058 <ENC_Inc+0x126>
					}
					case 2:
					{
						Settings[2] ^= (1<<0);
    104c:	ec e6       	ldi	r30, 0x6C	; 108
    104e:	f1 e0       	ldi	r31, 0x01	; 1
    1050:	92 81       	ldd	r25, Z+2	; 0x02
    1052:	81 e0       	ldi	r24, 0x01	; 1
    1054:	89 27       	eor	r24, r25
    1056:	82 83       	std	Z+2, r24	; 0x02
						break;
					}
				}
			}
			RSeg = 0;
    1058:	10 92 62 01 	sts	0x0162, r1	; 0x800162 <RSeg>
			UpdateTimerTask(MirrorDigit, 500);
    105c:	64 ef       	ldi	r22, 0xF4	; 244
    105e:	71 e0       	ldi	r23, 0x01	; 1
    1060:	82 e3       	ldi	r24, 0x32	; 50
    1062:	97 e0       	ldi	r25, 0x07	; 7
    1064:	71 dc       	rcall	.-1822   	; 0x948 <UpdateTimerTask>
		
			SendTask(PrintParameters);
    1066:	8a e8       	ldi	r24, 0x8A	; 138
    1068:	95 e0       	ldi	r25, 0x05	; 5
    106a:	eb db       	rcall	.-2090   	; 0x842 <SendTask>
		}
	}
}
    106c:	df 91       	pop	r29
    106e:	cf 91       	pop	r28
    1070:	1f 91       	pop	r17
    1072:	0f 91       	pop	r16
    1074:	ff 90       	pop	r15
    1076:	ef 90       	pop	r14
    1078:	08 95       	ret

0000107a <ENC_Dec>:

//***************************************************************************
// Энкодер вращается против часовой стрелки
//***************************************************************************
void ENC_Dec(void)
{
    107a:	ef 92       	push	r14
    107c:	ff 92       	push	r15
    107e:	0f 93       	push	r16
    1080:	1f 93       	push	r17
    1082:	cf 93       	push	r28
    1084:	df 93       	push	r29
//Здесь может быть ваш код ;)
	if(TimerState == TS_Wait)
    1086:	80 91 64 01 	lds	r24, 0x0164	; 0x800164 <TimerState>
    108a:	81 11       	cpse	r24, r1
    108c:	97 c0       	rjmp	.+302    	; 0x11bc <ENC_Dec+0x142>
	{
		if (DisplayN%10 == 0)
    108e:	c0 91 63 01 	lds	r28, 0x0163	; 0x800163 <DisplayN>
    1092:	8d ec       	ldi	r24, 0xCD	; 205
    1094:	c8 9f       	mul	r28, r24
    1096:	81 2d       	mov	r24, r1
    1098:	11 24       	eor	r1, r1
    109a:	86 95       	lsr	r24
    109c:	86 95       	lsr	r24
    109e:	86 95       	lsr	r24
    10a0:	88 0f       	add	r24, r24
    10a2:	98 2f       	mov	r25, r24
    10a4:	99 0f       	add	r25, r25
    10a6:	99 0f       	add	r25, r25
    10a8:	89 0f       	add	r24, r25
    10aa:	9c 2f       	mov	r25, r28
    10ac:	98 1b       	sub	r25, r24
    10ae:	89 2f       	mov	r24, r25
    10b0:	79 f5       	brne	.+94     	; 0x1110 <ENC_Dec+0x96>
		{
			if (DisplayN == 0)
    10b2:	c1 11       	cpse	r28, r1
    10b4:	04 c0       	rjmp	.+8      	; 0x10be <ENC_Dec+0x44>
				DisplayN = 50;
    10b6:	82 e3       	ldi	r24, 0x32	; 50
    10b8:	80 93 63 01 	sts	0x0163, r24	; 0x800163 <DisplayN>
    10bc:	25 c0       	rjmp	.+74     	; 0x1108 <ENC_Dec+0x8e>
			else
				DisplayN -= 10;
    10be:	ca 50       	subi	r28, 0x0A	; 10
    10c0:	c0 93 63 01 	sts	0x0163, r28	; 0x800163 <DisplayN>
			
			if (DisplayN != 50)
    10c4:	c2 33       	cpi	r28, 0x32	; 50
    10c6:	01 f1       	breq	.+64     	; 0x1108 <ENC_Dec+0x8e>
/*Считывание и запись параметров таймера*/
inline void ReadTime(void)
{
	for (unsigned char i=0; i<3; i++)
	{
		Time[i] = eeprom_read_byte(&EE_TimeModes[DisplayN/10][i]);
    10c8:	8d ec       	ldi	r24, 0xCD	; 205
    10ca:	c8 9f       	mul	r28, r24
    10cc:	c1 2d       	mov	r28, r1
    10ce:	11 24       	eor	r1, r1
    10d0:	c6 95       	lsr	r28
    10d2:	c6 95       	lsr	r28
    10d4:	c6 95       	lsr	r28
    10d6:	d0 e0       	ldi	r29, 0x00	; 0
    10d8:	ce 01       	movw	r24, r28
    10da:	88 0f       	add	r24, r24
    10dc:	99 1f       	adc	r25, r25
    10de:	c8 0f       	add	r28, r24
    10e0:	d9 1f       	adc	r29, r25
    10e2:	cd 5f       	subi	r28, 0xFD	; 253
    10e4:	df 4f       	sbci	r29, 0xFF	; 255
    10e6:	0f e6       	ldi	r16, 0x6F	; 111
    10e8:	11 e0       	ldi	r17, 0x01	; 1
    10ea:	0f 2e       	mov	r0, r31
    10ec:	f2 e7       	ldi	r31, 0x72	; 114
    10ee:	ef 2e       	mov	r14, r31
    10f0:	f1 e0       	ldi	r31, 0x01	; 1
    10f2:	ff 2e       	mov	r15, r31
    10f4:	f0 2d       	mov	r31, r0
    10f6:	ce 01       	movw	r24, r28
    10f8:	25 d2       	rcall	.+1098   	; 0x1544 <eeprom_read_byte>
    10fa:	f8 01       	movw	r30, r16
    10fc:	81 93       	st	Z+, r24
    10fe:	8f 01       	movw	r16, r30
    1100:	21 96       	adiw	r28, 0x01	; 1
}

/*Считывание и запись параметров таймера*/
inline void ReadTime(void)
{
	for (unsigned char i=0; i<3; i++)
    1102:	ee 15       	cp	r30, r14
    1104:	ff 05       	cpc	r31, r15
    1106:	b9 f7       	brne	.-18     	; 0x10f6 <ENC_Dec+0x7c>
			
			if (DisplayN != 50)
			{
				ReadTime();
			}
			SendTask(DisplayUpdate);
    1108:	8b ec       	ldi	r24, 0xCB	; 203
    110a:	96 e0       	ldi	r25, 0x06	; 6
    110c:	9a db       	rcall	.-2252   	; 0x842 <SendTask>
    110e:	56 c0       	rjmp	.+172    	; 0x11bc <ENC_Dec+0x142>
		}
		else
		{
			unsigned char i = DisplayN%10 - 1;
		
			if (DisplayN < 50)
    1110:	c2 33       	cpi	r28, 0x32	; 50
    1112:	e8 f4       	brcc	.+58     	; 0x114e <ENC_Dec+0xd4>
			{
				i = 2-i;
    1114:	33 e0       	ldi	r19, 0x03	; 3
    1116:	39 1b       	sub	r19, r25
				Time[i]--;
    1118:	83 2f       	mov	r24, r19
    111a:	90 e0       	ldi	r25, 0x00	; 0
    111c:	fc 01       	movw	r30, r24
    111e:	e1 59       	subi	r30, 0x91	; 145
    1120:	fe 4f       	sbci	r31, 0xFE	; 254
    1122:	20 81       	ld	r18, Z
    1124:	21 50       	subi	r18, 0x01	; 1
    1126:	28 f0       	brcs	.+10     	; 0x1132 <ENC_Dec+0xb8>
    1128:	fc 01       	movw	r30, r24
    112a:	e1 59       	subi	r30, 0x91	; 145
    112c:	fe 4f       	sbci	r31, 0xFE	; 254
    112e:	20 83       	st	Z, r18
    1130:	3b c0       	rjmp	.+118    	; 0x11a8 <ENC_Dec+0x12e>
				if (Time[i] == 255)
				{
					if (i != 0)
    1132:	33 23       	and	r19, r19
    1134:	31 f0       	breq	.+12     	; 0x1142 <ENC_Dec+0xc8>
						Time[i] = 59;
    1136:	fc 01       	movw	r30, r24
    1138:	e1 59       	subi	r30, 0x91	; 145
    113a:	fe 4f       	sbci	r31, 0xFE	; 254
    113c:	2b e3       	ldi	r18, 0x3B	; 59
    113e:	20 83       	st	Z, r18
    1140:	33 c0       	rjmp	.+102    	; 0x11a8 <ENC_Dec+0x12e>
					else
						Time[i] = 99;
    1142:	fc 01       	movw	r30, r24
    1144:	e1 59       	subi	r30, 0x91	; 145
    1146:	fe 4f       	sbci	r31, 0xFE	; 254
    1148:	23 e6       	ldi	r18, 0x63	; 99
    114a:	20 83       	st	Z, r18
    114c:	2d c0       	rjmp	.+90     	; 0x11a8 <ENC_Dec+0x12e>
			}
			SendTask(DisplayUpdate);
		}
		else
		{
			unsigned char i = DisplayN%10 - 1;
    114e:	81 50       	subi	r24, 0x01	; 1
						Time[i] = 99;
				}
			}
			else
			{
				switch (i)
    1150:	81 30       	cpi	r24, 0x01	; 1
    1152:	51 f0       	breq	.+20     	; 0x1168 <ENC_Dec+0xee>
    1154:	18 f0       	brcs	.+6      	; 0x115c <ENC_Dec+0xe2>
    1156:	82 30       	cpi	r24, 0x02	; 2
    1158:	09 f1       	breq	.+66     	; 0x119c <ENC_Dec+0x122>
    115a:	26 c0       	rjmp	.+76     	; 0x11a8 <ENC_Dec+0x12e>
				{
					case 0:
					{
						Settings[0]--;
    115c:	ec e6       	ldi	r30, 0x6C	; 108
    115e:	f1 e0       	ldi	r31, 0x01	; 1
    1160:	80 81       	ld	r24, Z
    1162:	81 50       	subi	r24, 0x01	; 1
    1164:	80 83       	st	Z, r24
						break;
    1166:	20 c0       	rjmp	.+64     	; 0x11a8 <ENC_Dec+0x12e>
					}
					case 1:
					{
						Settings[1] -= 10;
    1168:	80 91 6d 01 	lds	r24, 0x016D	; 0x80016d <Settings+0x1>
    116c:	8a 50       	subi	r24, 0x0A	; 10
						if (Settings[1] > 100)
    116e:	85 36       	cpi	r24, 0x65	; 101
    1170:	18 f4       	brcc	.+6      	; 0x1178 <ENC_Dec+0xfe>
						Settings[0]--;
						break;
					}
					case 1:
					{
						Settings[1] -= 10;
    1172:	80 93 6d 01 	sts	0x016D, r24	; 0x80016d <Settings+0x1>
    1176:	03 c0       	rjmp	.+6      	; 0x117e <ENC_Dec+0x104>
						if (Settings[1] > 100)
						Settings[1] = 100;
    1178:	84 e6       	ldi	r24, 0x64	; 100
    117a:	80 93 6d 01 	sts	0x016D, r24	; 0x80016d <Settings+0x1>
						OCR2 = pgm_read_byte(&PerToFill[Settings[1]/10]);
    117e:	80 91 6d 01 	lds	r24, 0x016D	; 0x80016d <Settings+0x1>
    1182:	ed ec       	ldi	r30, 0xCD	; 205
    1184:	8e 9f       	mul	r24, r30
    1186:	e1 2d       	mov	r30, r1
    1188:	11 24       	eor	r1, r1
    118a:	e6 95       	lsr	r30
    118c:	e6 95       	lsr	r30
    118e:	e6 95       	lsr	r30
    1190:	f0 e0       	ldi	r31, 0x00	; 0
    1192:	ef 5f       	subi	r30, 0xFF	; 255
    1194:	fb 4f       	sbci	r31, 0xFB	; 251
    1196:	e4 91       	lpm	r30, Z
    1198:	e3 bd       	out	0x23, r30	; 35
						break;
    119a:	06 c0       	rjmp	.+12     	; 0x11a8 <ENC_Dec+0x12e>
					}
					case 2:
					{
						Settings[2] ^= (1<<0);
    119c:	ec e6       	ldi	r30, 0x6C	; 108
    119e:	f1 e0       	ldi	r31, 0x01	; 1
    11a0:	92 81       	ldd	r25, Z+2	; 0x02
    11a2:	81 e0       	ldi	r24, 0x01	; 1
    11a4:	89 27       	eor	r24, r25
    11a6:	82 83       	std	Z+2, r24	; 0x02
						break;
					}
				}
			}
			RSeg = 0;
    11a8:	10 92 62 01 	sts	0x0162, r1	; 0x800162 <RSeg>
			UpdateTimerTask(MirrorDigit, 500);
    11ac:	64 ef       	ldi	r22, 0xF4	; 244
    11ae:	71 e0       	ldi	r23, 0x01	; 1
    11b0:	82 e3       	ldi	r24, 0x32	; 50
    11b2:	97 e0       	ldi	r25, 0x07	; 7
    11b4:	c9 db       	rcall	.-2158   	; 0x948 <UpdateTimerTask>
		
			SendTask(PrintParameters);
    11b6:	8a e8       	ldi	r24, 0x8A	; 138
    11b8:	95 e0       	ldi	r25, 0x05	; 5
    11ba:	43 db       	rcall	.-2426   	; 0x842 <SendTask>
		}
	}
}
    11bc:	df 91       	pop	r29
    11be:	cf 91       	pop	r28
    11c0:	1f 91       	pop	r17
    11c2:	0f 91       	pop	r16
    11c4:	ff 90       	pop	r15
    11c6:	ef 90       	pop	r14
    11c8:	08 95       	ret

000011ca <TimerStart>:
}


void TimerStart(void)
{
	if (TimerState == TS_Wait)
    11ca:	80 91 64 01 	lds	r24, 0x0164	; 0x800164 <TimerState>
    11ce:	81 11       	cpse	r24, r1
    11d0:	0a c0       	rjmp	.+20     	; 0x11e6 <TimerStart+0x1c>
	{
		TimerDelay = Settings[0];
    11d2:	80 91 6c 01 	lds	r24, 0x016C	; 0x80016c <Settings>
    11d6:	80 93 6a 01 	sts	0x016A, r24	; 0x80016a <TimerDelay>
		SendTimerTask(TimerStep, 1000);
    11da:	68 ee       	ldi	r22, 0xE8	; 232
    11dc:	73 e0       	ldi	r23, 0x03	; 3
    11de:	8d e1       	ldi	r24, 0x1D	; 29
    11e0:	9a e0       	ldi	r25, 0x0A	; 10
    11e2:	80 db       	rcall	.-2304   	; 0x8e4 <SendTimerTask>
    11e4:	08 c0       	rjmp	.+16     	; 0x11f6 <TimerStart+0x2c>
	}
	else
	{
		if (TimerState == TS_Pause)
    11e6:	82 30       	cpi	r24, 0x02	; 2
    11e8:	31 f4       	brne	.+12     	; 0x11f6 <TimerStart+0x2c>
			SendTimerTask(TimerStep, TimerTemp);
    11ea:	60 91 6b 01 	lds	r22, 0x016B	; 0x80016b <TimerTemp>
    11ee:	70 e0       	ldi	r23, 0x00	; 0
    11f0:	8d e1       	ldi	r24, 0x1D	; 29
    11f2:	9a e0       	ldi	r25, 0x0A	; 10
    11f4:	77 db       	rcall	.-2322   	; 0x8e4 <SendTimerTask>
	}
	
	if (TimerDelay == 0)
    11f6:	80 91 6a 01 	lds	r24, 0x016A	; 0x80016a <TimerDelay>
    11fa:	81 11       	cpse	r24, r1
    11fc:	01 c0       	rjmp	.+2      	; 0x1200 <TimerStart+0x36>
		TimerON();
    11fe:	c0 9a       	sbi	0x18, 0	; 24
		
	TimerState = TS_Work;
    1200:	81 e0       	ldi	r24, 0x01	; 1
    1202:	80 93 64 01 	sts	0x0164, r24	; 0x800164 <TimerState>
	SendTask(DisplayUpdate);
    1206:	8b ec       	ldi	r24, 0xCB	; 203
    1208:	96 e0       	ldi	r25, 0x06	; 6
    120a:	1b db       	rcall	.-2506   	; 0x842 <SendTask>
    120c:	08 95       	ret

0000120e <TimerPause>:
}

void TimerPause(void)
{
	TimerOFF();
    120e:	c0 98       	cbi	0x18, 0	; 24
	TimerTemp = RemoveTask(TimerStep);
    1210:	8d e1       	ldi	r24, 0x1D	; 29
    1212:	9a e0       	ldi	r25, 0x0A	; 10
    1214:	be db       	rcall	.-2180   	; 0x992 <RemoveTask>
    1216:	80 93 6b 01 	sts	0x016B, r24	; 0x80016b <TimerTemp>
	
	TimerState = TS_Pause;
    121a:	82 e0       	ldi	r24, 0x02	; 2
    121c:	80 93 64 01 	sts	0x0164, r24	; 0x800164 <TimerState>
	SendTask(DisplayUpdate);
    1220:	8b ec       	ldi	r24, 0xCB	; 203
    1222:	96 e0       	ldi	r25, 0x06	; 6
    1224:	0e db       	rcall	.-2532   	; 0x842 <SendTask>
    1226:	08 95       	ret

00001228 <TimerStop>:
}

void TimerStop(void)
{
    1228:	ef 92       	push	r14
    122a:	ff 92       	push	r15
    122c:	0f 93       	push	r16
    122e:	1f 93       	push	r17
    1230:	cf 93       	push	r28
    1232:	df 93       	push	r29
	TimerOFF();
    1234:	c0 98       	cbi	0x18, 0	; 24
	if (TimerState == TS_Work)
    1236:	80 91 64 01 	lds	r24, 0x0164	; 0x800164 <TimerState>
    123a:	81 30       	cpi	r24, 0x01	; 1
    123c:	a9 f4       	brne	.+42     	; 0x1268 <TimerStop+0x40>
		RemoveTask(TimerStep);
    123e:	8d e1       	ldi	r24, 0x1D	; 29
    1240:	9a e0       	ldi	r25, 0x0A	; 10
    1242:	a7 db       	rcall	.-2226   	; 0x992 <RemoveTask>
    1244:	11 c0       	rjmp	.+34     	; 0x1268 <TimerStop+0x40>
/*Считывание и запись параметров таймера*/
inline void ReadTime(void)
{
	for (unsigned char i=0; i<3; i++)
	{
		Time[i] = eeprom_read_byte(&EE_TimeModes[DisplayN/10][i]);
    1246:	ce 01       	movw	r24, r28
    1248:	7d d1       	rcall	.+762    	; 0x1544 <eeprom_read_byte>
    124a:	f8 01       	movw	r30, r16
    124c:	81 93       	st	Z+, r24
    124e:	8f 01       	movw	r16, r30
    1250:	21 96       	adiw	r28, 0x01	; 1
}

/*Считывание и запись параметров таймера*/
inline void ReadTime(void)
{
	for (unsigned char i=0; i<3; i++)
    1252:	ee 15       	cp	r30, r14
    1254:	ff 05       	cpc	r31, r15
    1256:	b9 f7       	brne	.-18     	; 0x1246 <TimerStop+0x1e>
	TimerOFF();
	if (TimerState == TS_Work)
		RemoveTask(TimerStep);
		
	ReadTime();
	TimerDelay = 0;
    1258:	10 92 6a 01 	sts	0x016A, r1	; 0x80016a <TimerDelay>
	TimerState = TS_Wait;	
    125c:	10 92 64 01 	sts	0x0164, r1	; 0x800164 <TimerState>
	SendTask(DisplayUpdate);
    1260:	8b ec       	ldi	r24, 0xCB	; 203
    1262:	96 e0       	ldi	r25, 0x06	; 6
    1264:	ee da       	rcall	.-2596   	; 0x842 <SendTask>
    1266:	1a c0       	rjmp	.+52     	; 0x129c <TimerStop+0x74>
/*Считывание и запись параметров таймера*/
inline void ReadTime(void)
{
	for (unsigned char i=0; i<3; i++)
	{
		Time[i] = eeprom_read_byte(&EE_TimeModes[DisplayN/10][i]);
    1268:	80 91 63 01 	lds	r24, 0x0163	; 0x800163 <DisplayN>
    126c:	cd ec       	ldi	r28, 0xCD	; 205
    126e:	8c 9f       	mul	r24, r28
    1270:	c1 2d       	mov	r28, r1
    1272:	11 24       	eor	r1, r1
    1274:	c6 95       	lsr	r28
    1276:	c6 95       	lsr	r28
    1278:	c6 95       	lsr	r28
    127a:	d0 e0       	ldi	r29, 0x00	; 0
    127c:	ce 01       	movw	r24, r28
    127e:	88 0f       	add	r24, r24
    1280:	99 1f       	adc	r25, r25
    1282:	c8 0f       	add	r28, r24
    1284:	d9 1f       	adc	r29, r25
    1286:	cd 5f       	subi	r28, 0xFD	; 253
    1288:	df 4f       	sbci	r29, 0xFF	; 255
    128a:	0f e6       	ldi	r16, 0x6F	; 111
    128c:	11 e0       	ldi	r17, 0x01	; 1
    128e:	0f 2e       	mov	r0, r31
    1290:	f2 e7       	ldi	r31, 0x72	; 114
    1292:	ef 2e       	mov	r14, r31
    1294:	f1 e0       	ldi	r31, 0x01	; 1
    1296:	ff 2e       	mov	r15, r31
    1298:	f0 2d       	mov	r31, r0
    129a:	d5 cf       	rjmp	.-86     	; 0x1246 <TimerStop+0x1e>
		
	ReadTime();
	TimerDelay = 0;
	TimerState = TS_Wait;	
	SendTask(DisplayUpdate);
}
    129c:	df 91       	pop	r29
    129e:	cf 91       	pop	r28
    12a0:	1f 91       	pop	r17
    12a2:	0f 91       	pop	r16
    12a4:	ff 90       	pop	r15
    12a6:	ef 90       	pop	r14
    12a8:	08 95       	ret

000012aa <Beep>:
	SendTimerTask(MirrorDigit, 500);
}

void Beep(uint16_t Time)
{
	if (((BuzzerPort&(1<<BuzzerNPin)) == 0) && (Settings[2] == 1))
    12aa:	aa 99       	sbic	0x15, 2	; 21
    12ac:	0a c0       	rjmp	.+20     	; 0x12c2 <Beep+0x18>
    12ae:	20 91 6e 01 	lds	r18, 0x016E	; 0x80016e <Settings+0x2>
    12b2:	21 30       	cpi	r18, 0x01	; 1
    12b4:	31 f4       	brne	.+12     	; 0x12c2 <Beep+0x18>
    12b6:	bc 01       	movw	r22, r24
	{
		BuzzerPort |= (1<<BuzzerNPin);
    12b8:	aa 9a       	sbi	0x15, 2	; 21
		SendTimerTask(BuzzerOFF, Time);
    12ba:	88 e8       	ldi	r24, 0x88	; 136
    12bc:	95 e0       	ldi	r25, 0x05	; 5
    12be:	12 db       	rcall	.-2524   	; 0x8e4 <SendTimerTask>
    12c0:	08 95       	ret
	}
	else
	{
		BuzzerPort &= ~(1<<BuzzerNPin);
    12c2:	aa 98       	cbi	0x15, 2	; 21
    12c4:	08 95       	ret

000012c6 <ENC_ShortPress>:
//***************************************************************************
// Короткое нажатие кнопки
//***************************************************************************
void ENC_ShortPress(void)
{
	BuzzerOFF();
    12c6:	24 dc       	rcall	.-1976   	; 0xb10 <BuzzerOFF>
	if (DisplayN%10 == 0)
    12c8:	90 91 63 01 	lds	r25, 0x0163	; 0x800163 <DisplayN>
    12cc:	8d ec       	ldi	r24, 0xCD	; 205
    12ce:	98 9f       	mul	r25, r24
    12d0:	81 2d       	mov	r24, r1
    12d2:	11 24       	eor	r1, r1
    12d4:	86 95       	lsr	r24
    12d6:	86 95       	lsr	r24
    12d8:	86 95       	lsr	r24
    12da:	88 0f       	add	r24, r24
    12dc:	28 2f       	mov	r18, r24
    12de:	22 0f       	add	r18, r18
    12e0:	22 0f       	add	r18, r18
    12e2:	82 0f       	add	r24, r18
    12e4:	98 13       	cpse	r25, r24
    12e6:	0d c0       	rjmp	.+26     	; 0x1302 <ENC_ShortPress+0x3c>
	{
		if (DisplayN < 50)
    12e8:	92 33       	cpi	r25, 0x32	; 50
    12ea:	30 f5       	brcc	.+76     	; 0x1338 <ENC_ShortPress+0x72>
		{
			if (TimerState == TS_Work)
    12ec:	80 91 64 01 	lds	r24, 0x0164	; 0x800164 <TimerState>
    12f0:	81 30       	cpi	r24, 0x01	; 1
    12f2:	11 f4       	brne	.+4      	; 0x12f8 <ENC_ShortPress+0x32>
				TimerPause();
    12f4:	8c df       	rcall	.-232    	; 0x120e <TimerPause>
    12f6:	01 c0       	rjmp	.+2      	; 0x12fa <ENC_ShortPress+0x34>
			else
				TimerStart();
    12f8:	68 df       	rcall	.-304    	; 0x11ca <TimerStart>
		Beep(50);
    12fa:	82 e3       	ldi	r24, 0x32	; 50
    12fc:	90 e0       	ldi	r25, 0x00	; 0
    12fe:	d5 df       	rcall	.-86     	; 0x12aa <Beep>
    1300:	08 95       	ret
		}
	}
	else
	{
		DisplayN++;
    1302:	31 e0       	ldi	r19, 0x01	; 1
    1304:	39 0f       	add	r19, r25
		if (DisplayN%10 == 4)
    1306:	8d ec       	ldi	r24, 0xCD	; 205
    1308:	38 9f       	mul	r19, r24
    130a:	81 2d       	mov	r24, r1
    130c:	11 24       	eor	r1, r1
    130e:	86 95       	lsr	r24
    1310:	86 95       	lsr	r24
    1312:	86 95       	lsr	r24
    1314:	88 0f       	add	r24, r24
    1316:	28 2f       	mov	r18, r24
    1318:	22 0f       	add	r18, r18
    131a:	22 0f       	add	r18, r18
    131c:	82 0f       	add	r24, r18
    131e:	23 2f       	mov	r18, r19
    1320:	28 1b       	sub	r18, r24
    1322:	24 30       	cpi	r18, 0x04	; 4
    1324:	19 f0       	breq	.+6      	; 0x132c <ENC_ShortPress+0x66>
		Beep(50);
		}
	}
	else
	{
		DisplayN++;
    1326:	30 93 63 01 	sts	0x0163, r19	; 0x800163 <DisplayN>
    132a:	03 c0       	rjmp	.+6      	; 0x1332 <ENC_ShortPress+0x6c>
		if (DisplayN%10 == 4)
		{
			DisplayN = DisplayN - 3;
    132c:	92 50       	subi	r25, 0x02	; 2
    132e:	90 93 63 01 	sts	0x0163, r25	; 0x800163 <DisplayN>
		}
		//RSeg = 0;
		//UpdateTimerTask(MirrorDigit, 500);
		Beep(50);
    1332:	82 e3       	ldi	r24, 0x32	; 50
    1334:	90 e0       	ldi	r25, 0x00	; 0
    1336:	b9 df       	rcall	.-142    	; 0x12aa <Beep>
    1338:	08 95       	ret

0000133a <ENC_LongPress>:

//***************************************************************************
// Длинное нажатие кнопки
//***************************************************************************
void ENC_LongPress(void)
{
    133a:	ef 92       	push	r14
    133c:	ff 92       	push	r15
    133e:	0f 93       	push	r16
    1340:	1f 93       	push	r17
    1342:	cf 93       	push	r28
    1344:	df 93       	push	r29
	BuzzerOFF();
    1346:	e4 db       	rcall	.-2104   	; 0xb10 <BuzzerOFF>
	if (TimerState == TS_Wait)
    1348:	80 91 64 01 	lds	r24, 0x0164	; 0x800164 <TimerState>
    134c:	81 11       	cpse	r24, r1
    134e:	67 c0       	rjmp	.+206    	; 0x141e <ENC_LongPress+0xe4>
	{
		if (DisplayN%10 == 0)
    1350:	90 91 63 01 	lds	r25, 0x0163	; 0x800163 <DisplayN>
    1354:	8d ec       	ldi	r24, 0xCD	; 205
    1356:	98 9f       	mul	r25, r24
    1358:	81 2d       	mov	r24, r1
    135a:	11 24       	eor	r1, r1
    135c:	86 95       	lsr	r24
    135e:	86 95       	lsr	r24
    1360:	86 95       	lsr	r24
    1362:	88 0f       	add	r24, r24
    1364:	28 2f       	mov	r18, r24
    1366:	22 0f       	add	r18, r18
    1368:	22 0f       	add	r18, r18
    136a:	82 0f       	add	r24, r18
    136c:	29 2f       	mov	r18, r25
    136e:	28 1b       	sub	r18, r24
    1370:	59 f4       	brne	.+22     	; 0x1388 <ENC_LongPress+0x4e>
		{
			DisplayN++;
    1372:	9f 5f       	subi	r25, 0xFF	; 255
    1374:	90 93 63 01 	sts	0x0163, r25	; 0x800163 <DisplayN>
			RSeg = 0;
    1378:	10 92 62 01 	sts	0x0162, r1	; 0x800162 <RSeg>
			SendTimerTask(MirrorDigit, 500);
    137c:	64 ef       	ldi	r22, 0xF4	; 244
    137e:	71 e0       	ldi	r23, 0x01	; 1
    1380:	82 e3       	ldi	r24, 0x32	; 50
    1382:	97 e0       	ldi	r25, 0x07	; 7
    1384:	af da       	rcall	.-2722   	; 0x8e4 <SendTimerTask>
    1386:	4f c0       	rjmp	.+158    	; 0x1426 <ENC_LongPress+0xec>
		}
		else
		{
			DisplayN = DisplayN - DisplayN%10;
    1388:	92 1b       	sub	r25, r18
    138a:	90 93 63 01 	sts	0x0163, r25	; 0x800163 <DisplayN>
			if (DisplayN < 50)
    138e:	92 33       	cpi	r25, 0x32	; 50
    1390:	10 f5       	brcc	.+68     	; 0x13d6 <ENC_LongPress+0x9c>
    1392:	cf e6       	ldi	r28, 0x6F	; 111
    1394:	d1 e0       	ldi	r29, 0x01	; 1
    1396:	00 e0       	ldi	r16, 0x00	; 0
    1398:	10 e0       	ldi	r17, 0x00	; 0

inline void WriteTime(void)
{
	for (unsigned char i=0; i<3; i++)
	{
		eeprom_write_byte(&EE_TimeModes[DisplayN/10][i], Time[i]);
    139a:	0f 2e       	mov	r0, r31
    139c:	fd ec       	ldi	r31, 0xCD	; 205
    139e:	ff 2e       	mov	r15, r31
    13a0:	f0 2d       	mov	r31, r0
    13a2:	69 91       	ld	r22, Y+
    13a4:	80 91 63 01 	lds	r24, 0x0163	; 0x800163 <DisplayN>
    13a8:	8f 9d       	mul	r24, r15
    13aa:	81 2d       	mov	r24, r1
    13ac:	11 24       	eor	r1, r1
    13ae:	86 95       	lsr	r24
    13b0:	86 95       	lsr	r24
    13b2:	86 95       	lsr	r24
    13b4:	90 e0       	ldi	r25, 0x00	; 0
    13b6:	9c 01       	movw	r18, r24
    13b8:	22 0f       	add	r18, r18
    13ba:	33 1f       	adc	r19, r19
    13bc:	82 0f       	add	r24, r18
    13be:	93 1f       	adc	r25, r19
    13c0:	80 0f       	add	r24, r16
    13c2:	91 1f       	adc	r25, r17
    13c4:	8d 5f       	subi	r24, 0xFD	; 253
    13c6:	9f 4f       	sbci	r25, 0xFF	; 255
    13c8:	c5 d0       	rcall	.+394    	; 0x1554 <eeprom_write_byte>
    13ca:	0f 5f       	subi	r16, 0xFF	; 255
    13cc:	1f 4f       	sbci	r17, 0xFF	; 255
	}
}

inline void WriteTime(void)
{
	for (unsigned char i=0; i<3; i++)
    13ce:	03 30       	cpi	r16, 0x03	; 3
    13d0:	11 05       	cpc	r17, r1
    13d2:	39 f7       	brne	.-50     	; 0x13a2 <ENC_LongPress+0x68>
    13d4:	13 c0       	rjmp	.+38     	; 0x13fc <ENC_LongPress+0xc2>
    13d6:	0c e6       	ldi	r16, 0x6C	; 108
    13d8:	11 e0       	ldi	r17, 0x01	; 1
    13da:	c0 e0       	ldi	r28, 0x00	; 0
    13dc:	d0 e0       	ldi	r29, 0x00	; 0
    13de:	0f 2e       	mov	r0, r31
    13e0:	ff e6       	ldi	r31, 0x6F	; 111
    13e2:	ef 2e       	mov	r14, r31
    13e4:	f1 e0       	ldi	r31, 0x01	; 1
    13e6:	ff 2e       	mov	r15, r31
    13e8:	f0 2d       	mov	r31, r0

inline void WriteSettings(void)
{
	for (unsigned char i=0; i<3; i++)
	{
		eeprom_write_byte(&EE_TimerSettings[i], Settings[i]);
    13ea:	f8 01       	movw	r30, r16
    13ec:	61 91       	ld	r22, Z+
    13ee:	8f 01       	movw	r16, r30
    13f0:	ce 01       	movw	r24, r28
    13f2:	b0 d0       	rcall	.+352    	; 0x1554 <eeprom_write_byte>
    13f4:	21 96       	adiw	r28, 0x01	; 1
	}
}

inline void WriteSettings(void)
{
	for (unsigned char i=0; i<3; i++)
    13f6:	0e 15       	cp	r16, r14
    13f8:	1f 05       	cpc	r17, r15
    13fa:	b9 f7       	brne	.-18     	; 0x13ea <ENC_LongPress+0xb0>
			DisplayN = DisplayN - DisplayN%10;
			if (DisplayN < 50)
				WriteTime();
			else
				WriteSettings();
			RSeg = 0;
    13fc:	10 92 62 01 	sts	0x0162, r1	; 0x800162 <RSeg>
			RemoveTask(MirrorDigit);
    1400:	82 e3       	ldi	r24, 0x32	; 50
    1402:	97 e0       	ldi	r25, 0x07	; 7
    1404:	c6 da       	rcall	.-2676   	; 0x992 <RemoveTask>
			HeaderPrints("Сохранено");
    1406:	83 ef       	ldi	r24, 0xF3	; 243
    1408:	90 e0       	ldi	r25, 0x00	; 0
    140a:	af d8       	rcall	.-3746   	; 0x56a <HeaderPrints>
			SendTimerTask(DisplayUpdate, 1000);
    140c:	68 ee       	ldi	r22, 0xE8	; 232
    140e:	73 e0       	ldi	r23, 0x03	; 3
    1410:	8b ec       	ldi	r24, 0xCB	; 203
    1412:	96 e0       	ldi	r25, 0x06	; 6
    1414:	67 da       	rcall	.-2866   	; 0x8e4 <SendTimerTask>
			SendTask(PrintParameters);
    1416:	8a e8       	ldi	r24, 0x8A	; 138
    1418:	95 e0       	ldi	r25, 0x05	; 5
    141a:	13 da       	rcall	.-3034   	; 0x842 <SendTask>
    141c:	04 c0       	rjmp	.+8      	; 0x1426 <ENC_LongPress+0xec>
		}
	}
	else
	{
		TimerStop();
    141e:	04 df       	rcall	.-504    	; 0x1228 <TimerStop>
		SendTask(PrintParameters);
    1420:	8a e8       	ldi	r24, 0x8A	; 138
    1422:	95 e0       	ldi	r25, 0x05	; 5
    1424:	0e da       	rcall	.-3044   	; 0x842 <SendTask>
	}
	Beep(50);
    1426:	82 e3       	ldi	r24, 0x32	; 50
    1428:	90 e0       	ldi	r25, 0x00	; 0
    142a:	3f df       	rcall	.-386    	; 0x12aa <Beep>
}
    142c:	df 91       	pop	r29
    142e:	cf 91       	pop	r28
    1430:	1f 91       	pop	r17
    1432:	0f 91       	pop	r16
    1434:	ff 90       	pop	r15
    1436:	ef 90       	pop	r14
    1438:	08 95       	ret

0000143a <TimerStep>:
	SendTask(DisplayUpdate);
}

void TimerStep(void)
{
	SendTimerTask(TimerStep, 1000);
    143a:	68 ee       	ldi	r22, 0xE8	; 232
    143c:	73 e0       	ldi	r23, 0x03	; 3
    143e:	8d e1       	ldi	r24, 0x1D	; 29
    1440:	9a e0       	ldi	r25, 0x0A	; 10
    1442:	50 da       	rcall	.-2912   	; 0x8e4 <SendTimerTask>
	SendTask(PrintParameters);
    1444:	8a e8       	ldi	r24, 0x8A	; 138
    1446:	95 e0       	ldi	r25, 0x05	; 5
    1448:	fc d9       	rcall	.-3080   	; 0x842 <SendTask>
	if(TimerDelay == 0)
    144a:	80 91 6a 01 	lds	r24, 0x016A	; 0x80016a <TimerDelay>
    144e:	81 11       	cpse	r24, r1
    1450:	30 c0       	rjmp	.+96     	; 0x14b2 <TimerStep+0x78>
	{
		if (Time[2])
    1452:	80 91 71 01 	lds	r24, 0x0171	; 0x800171 <Time+0x2>
    1456:	88 23       	and	r24, r24
    1458:	b1 f0       	breq	.+44     	; 0x1486 <TimerStep+0x4c>
		{
			Time[2]--;
    145a:	81 50       	subi	r24, 0x01	; 1
    145c:	ef e6       	ldi	r30, 0x6F	; 111
    145e:	f1 e0       	ldi	r31, 0x01	; 1
    1460:	82 83       	std	Z+2, r24	; 0x02
			if ((Time[0] == 0) && (Time[1] == 0) && (Time[2] == 0))
    1462:	90 81       	ld	r25, Z
    1464:	91 11       	cpse	r25, r1
    1466:	3a c0       	rjmp	.+116    	; 0x14dc <TimerStep+0xa2>
    1468:	90 91 70 01 	lds	r25, 0x0170	; 0x800170 <Time+0x1>
    146c:	91 11       	cpse	r25, r1
    146e:	36 c0       	rjmp	.+108    	; 0x14dc <TimerStep+0xa2>
    1470:	81 11       	cpse	r24, r1
    1472:	32 c0       	rjmp	.+100    	; 0x14d8 <TimerStep+0x9e>
			{
				TimerStop();
    1474:	d9 de       	rcall	.-590    	; 0x1228 <TimerStop>
				Beep(500);
    1476:	84 ef       	ldi	r24, 0xF4	; 244
    1478:	91 e0       	ldi	r25, 0x01	; 1
    147a:	17 df       	rcall	.-466    	; 0x12aa <Beep>
    147c:	08 95       	ret
			}
			else
			{
				if ((Time[0] == 0) && (Time[1] == 0) && (Time[2] <= 5))
				    Beep(100);
    147e:	84 e6       	ldi	r24, 0x64	; 100
    1480:	90 e0       	ldi	r25, 0x00	; 0
    1482:	13 df       	rcall	.-474    	; 0x12aa <Beep>
    1484:	08 95       	ret
			}
		}
		else
		{
			Time[2] = 59;
    1486:	ef e6       	ldi	r30, 0x6F	; 111
    1488:	f1 e0       	ldi	r31, 0x01	; 1
    148a:	8b e3       	ldi	r24, 0x3B	; 59
    148c:	82 83       	std	Z+2, r24	; 0x02
			
			if (Time[1])
    148e:	81 81       	ldd	r24, Z+1	; 0x01
    1490:	88 23       	and	r24, r24
    1492:	21 f0       	breq	.+8      	; 0x149c <TimerStep+0x62>
				Time[1]--;
    1494:	81 50       	subi	r24, 0x01	; 1
    1496:	80 93 70 01 	sts	0x0170, r24	; 0x800170 <Time+0x1>
    149a:	08 95       	ret
			else
			{
				Time[1] = 59;
    149c:	ef e6       	ldi	r30, 0x6F	; 111
    149e:	f1 e0       	ldi	r31, 0x01	; 1
    14a0:	8b e3       	ldi	r24, 0x3B	; 59
    14a2:	81 83       	std	Z+1, r24	; 0x01
				if (Time[0])
    14a4:	80 81       	ld	r24, Z
    14a6:	88 23       	and	r24, r24
    14a8:	c9 f0       	breq	.+50     	; 0x14dc <TimerStep+0xa2>
					Time[0]--;
    14aa:	81 50       	subi	r24, 0x01	; 1
    14ac:	80 93 6f 01 	sts	0x016F, r24	; 0x80016f <Time>
    14b0:	08 95       	ret
			}
		}
	}
	else
	{
		TimerDelay--;
    14b2:	81 50       	subi	r24, 0x01	; 1
    14b4:	80 93 6a 01 	sts	0x016A, r24	; 0x80016a <TimerDelay>
		if (TimerDelay == 0)
    14b8:	81 11       	cpse	r24, r1
    14ba:	08 c0       	rjmp	.+16     	; 0x14cc <TimerStep+0x92>
		{
			TimerON();
    14bc:	c0 9a       	sbi	0x18, 0	; 24
			Beep(500);
    14be:	84 ef       	ldi	r24, 0xF4	; 244
    14c0:	91 e0       	ldi	r25, 0x01	; 1
    14c2:	f3 de       	rcall	.-538    	; 0x12aa <Beep>
			SendTask(DisplayUpdate);
    14c4:	8b ec       	ldi	r24, 0xCB	; 203
    14c6:	96 e0       	ldi	r25, 0x06	; 6
    14c8:	bc d9       	rcall	.-3208   	; 0x842 <SendTask>
    14ca:	08 95       	ret
		}
		else
			if (TimerDelay <= 5)
    14cc:	86 30       	cpi	r24, 0x06	; 6
    14ce:	30 f4       	brcc	.+12     	; 0x14dc <TimerStep+0xa2>
				Beep(100);
    14d0:	84 e6       	ldi	r24, 0x64	; 100
    14d2:	90 e0       	ldi	r25, 0x00	; 0
    14d4:	ea de       	rcall	.-556    	; 0x12aa <Beep>
    14d6:	08 95       	ret
				TimerStop();
				Beep(500);
			}
			else
			{
				if ((Time[0] == 0) && (Time[1] == 0) && (Time[2] <= 5))
    14d8:	86 30       	cpi	r24, 0x06	; 6
    14da:	88 f2       	brcs	.-94     	; 0x147e <TimerStep+0x44>
    14dc:	08 95       	ret

000014de <__itoa_ncheck>:
    14de:	bb 27       	eor	r27, r27
    14e0:	4a 30       	cpi	r20, 0x0A	; 10
    14e2:	31 f4       	brne	.+12     	; 0x14f0 <__itoa_ncheck+0x12>
    14e4:	99 23       	and	r25, r25
    14e6:	22 f4       	brpl	.+8      	; 0x14f0 <__itoa_ncheck+0x12>
    14e8:	bd e2       	ldi	r27, 0x2D	; 45
    14ea:	90 95       	com	r25
    14ec:	81 95       	neg	r24
    14ee:	9f 4f       	sbci	r25, 0xFF	; 255
    14f0:	01 c0       	rjmp	.+2      	; 0x14f4 <__utoa_common>

000014f2 <__utoa_ncheck>:
    14f2:	bb 27       	eor	r27, r27

000014f4 <__utoa_common>:
    14f4:	fb 01       	movw	r30, r22
    14f6:	55 27       	eor	r21, r21
    14f8:	aa 27       	eor	r26, r26
    14fa:	88 0f       	add	r24, r24
    14fc:	99 1f       	adc	r25, r25
    14fe:	aa 1f       	adc	r26, r26
    1500:	a4 17       	cp	r26, r20
    1502:	10 f0       	brcs	.+4      	; 0x1508 <__utoa_common+0x14>
    1504:	a4 1b       	sub	r26, r20
    1506:	83 95       	inc	r24
    1508:	50 51       	subi	r21, 0x10	; 16
    150a:	b9 f7       	brne	.-18     	; 0x14fa <__utoa_common+0x6>
    150c:	a0 5d       	subi	r26, 0xD0	; 208
    150e:	aa 33       	cpi	r26, 0x3A	; 58
    1510:	08 f0       	brcs	.+2      	; 0x1514 <__utoa_common+0x20>
    1512:	a9 5d       	subi	r26, 0xD9	; 217
    1514:	a1 93       	st	Z+, r26
    1516:	00 97       	sbiw	r24, 0x00	; 0
    1518:	79 f7       	brne	.-34     	; 0x14f8 <__utoa_common+0x4>
    151a:	b1 11       	cpse	r27, r1
    151c:	b1 93       	st	Z+, r27
    151e:	11 92       	st	Z+, r1
    1520:	cb 01       	movw	r24, r22
    1522:	00 c0       	rjmp	.+0      	; 0x1524 <strrev>

00001524 <strrev>:
    1524:	dc 01       	movw	r26, r24
    1526:	fc 01       	movw	r30, r24
    1528:	67 2f       	mov	r22, r23
    152a:	71 91       	ld	r23, Z+
    152c:	77 23       	and	r23, r23
    152e:	e1 f7       	brne	.-8      	; 0x1528 <strrev+0x4>
    1530:	32 97       	sbiw	r30, 0x02	; 2
    1532:	04 c0       	rjmp	.+8      	; 0x153c <strrev+0x18>
    1534:	7c 91       	ld	r23, X
    1536:	6d 93       	st	X+, r22
    1538:	70 83       	st	Z, r23
    153a:	62 91       	ld	r22, -Z
    153c:	ae 17       	cp	r26, r30
    153e:	bf 07       	cpc	r27, r31
    1540:	c8 f3       	brcs	.-14     	; 0x1534 <strrev+0x10>
    1542:	08 95       	ret

00001544 <eeprom_read_byte>:
    1544:	e1 99       	sbic	0x1c, 1	; 28
    1546:	fe cf       	rjmp	.-4      	; 0x1544 <eeprom_read_byte>
    1548:	9f bb       	out	0x1f, r25	; 31
    154a:	8e bb       	out	0x1e, r24	; 30
    154c:	e0 9a       	sbi	0x1c, 0	; 28
    154e:	99 27       	eor	r25, r25
    1550:	8d b3       	in	r24, 0x1d	; 29
    1552:	08 95       	ret

00001554 <eeprom_write_byte>:
    1554:	26 2f       	mov	r18, r22

00001556 <eeprom_write_r18>:
    1556:	e1 99       	sbic	0x1c, 1	; 28
    1558:	fe cf       	rjmp	.-4      	; 0x1556 <eeprom_write_r18>
    155a:	9f bb       	out	0x1f, r25	; 31
    155c:	8e bb       	out	0x1e, r24	; 30
    155e:	2d bb       	out	0x1d, r18	; 29
    1560:	0f b6       	in	r0, 0x3f	; 63
    1562:	f8 94       	cli
    1564:	e2 9a       	sbi	0x1c, 2	; 28
    1566:	e1 9a       	sbi	0x1c, 1	; 28
    1568:	0f be       	out	0x3f, r0	; 63
    156a:	01 96       	adiw	r24, 0x01	; 1
    156c:	08 95       	ret

0000156e <_exit>:
    156e:	f8 94       	cli

00001570 <__stop_program>:
    1570:	ff cf       	rjmp	.-2      	; 0x1570 <__stop_program>
